
obj/kern/kernel:     file format elf32-i386


Disassembly of section .text:

00100000 <video_init>:

static unsigned addr_6845;
static struct video terminal;

void video_init(void)
{
  100000:	57                   	push   %edi
  100001:	56                   	push   %esi
  100002:	53                   	push   %ebx
  100003:	e8 04 03 00 00       	call   10030c <__x86.get_pc_thunk.bx>
  100008:	81 c3 f8 af 00 00    	add    $0xaff8,%ebx
    uint16_t was;
    unsigned pos;

    /* Get a pointer to the memory-mapped text display buffer. */
    cp = (uint16_t *) CGA_BUF;
    was = *cp;
  10000e:	0f b7 15 00 80 0b 00 	movzwl 0xb8000,%edx
    *cp = (uint16_t) 0xA55A;
  100015:	66 c7 05 00 80 0b 00 	movw   $0xa55a,0xb8000
  10001c:	5a a5 
    if (*cp != 0xA55A) {
  10001e:	0f b7 05 00 80 0b 00 	movzwl 0xb8000,%eax
  100025:	66 3d 5a a5          	cmp    $0xa55a,%ax
  100029:	0f 84 91 00 00 00    	je     1000c0 <video_init+0xc0>
        cp = (uint16_t *) MONO_BUF;
        addr_6845 = MONO_BASE;
  10002f:	c7 83 0c 80 02 00 b4 	movl   $0x3b4,0x2800c(%ebx)
  100036:	03 00 00 
        dprintf("addr_6845:%x\n", addr_6845);
  100039:	83 ec 08             	sub    $0x8,%esp
  10003c:	68 b4 03 00 00       	push   $0x3b4
  100041:	8d 83 00 b0 ff ff    	lea    -0x5000(%ebx),%eax
  100047:	50                   	push   %eax
  100048:	e8 b4 2a 00 00       	call   102b01 <dprintf>
  10004d:	83 c4 10             	add    $0x10,%esp
        cp = (uint16_t *) MONO_BUF;
  100050:	be 00 00 0b 00       	mov    $0xb0000,%esi
        addr_6845 = CGA_BASE;
        dprintf("addr_6845:%x\n", addr_6845);
    }

    /* Extract cursor location */
    outb(addr_6845, 14);
  100055:	83 ec 08             	sub    $0x8,%esp
  100058:	6a 0e                	push   $0xe
  10005a:	ff b3 0c 80 02 00    	push   0x2800c(%ebx)
  100060:	e8 0b 35 00 00       	call   103570 <outb>
    pos = inb(addr_6845 + 1) << 8;
  100065:	8b 83 0c 80 02 00    	mov    0x2800c(%ebx),%eax
  10006b:	83 c0 01             	add    $0x1,%eax
  10006e:	89 04 24             	mov    %eax,(%esp)
  100071:	e8 e2 34 00 00       	call   103558 <inb>
  100076:	0f b6 f8             	movzbl %al,%edi
  100079:	c1 e7 08             	shl    $0x8,%edi
    outb(addr_6845, 15);
  10007c:	83 c4 08             	add    $0x8,%esp
  10007f:	6a 0f                	push   $0xf
  100081:	ff b3 0c 80 02 00    	push   0x2800c(%ebx)
  100087:	e8 e4 34 00 00       	call   103570 <outb>
    pos |= inb(addr_6845 + 1);
  10008c:	8b 83 0c 80 02 00    	mov    0x2800c(%ebx),%eax
  100092:	83 c0 01             	add    $0x1,%eax
  100095:	89 04 24             	mov    %eax,(%esp)
  100098:	e8 bb 34 00 00       	call   103558 <inb>
  10009d:	0f b6 c0             	movzbl %al,%eax
  1000a0:	09 f8                	or     %edi,%eax

    terminal.crt_buf = (uint16_t *) cp;
  1000a2:	89 b3 00 80 02 00    	mov    %esi,0x28000(%ebx)
    terminal.crt_pos = pos;
  1000a8:	66 89 83 04 80 02 00 	mov    %ax,0x28004(%ebx)
    terminal.active_console = 0;
  1000af:	c7 83 08 80 02 00 00 	movl   $0x0,0x28008(%ebx)
  1000b6:	00 00 00 
}
  1000b9:	83 c4 10             	add    $0x10,%esp
  1000bc:	5b                   	pop    %ebx
  1000bd:	5e                   	pop    %esi
  1000be:	5f                   	pop    %edi
  1000bf:	c3                   	ret    
        *cp = was;
  1000c0:	66 89 15 00 80 0b 00 	mov    %dx,0xb8000
        addr_6845 = CGA_BASE;
  1000c7:	c7 83 0c 80 02 00 d4 	movl   $0x3d4,0x2800c(%ebx)
  1000ce:	03 00 00 
        dprintf("addr_6845:%x\n", addr_6845);
  1000d1:	83 ec 08             	sub    $0x8,%esp
  1000d4:	68 d4 03 00 00       	push   $0x3d4
  1000d9:	8d 83 00 b0 ff ff    	lea    -0x5000(%ebx),%eax
  1000df:	50                   	push   %eax
  1000e0:	e8 1c 2a 00 00       	call   102b01 <dprintf>
  1000e5:	83 c4 10             	add    $0x10,%esp
    cp = (uint16_t *) CGA_BUF;
  1000e8:	be 00 80 0b 00       	mov    $0xb8000,%esi
  1000ed:	e9 63 ff ff ff       	jmp    100055 <video_init+0x55>

001000f2 <video_putc>:

void video_putc(int c)
{
  1000f2:	53                   	push   %ebx
  1000f3:	83 ec 08             	sub    $0x8,%esp
  1000f6:	e8 11 02 00 00       	call   10030c <__x86.get_pc_thunk.bx>
  1000fb:	81 c3 05 af 00 00    	add    $0xaf05,%ebx
  100101:	8b 44 24 10          	mov    0x10(%esp),%eax
    // if no attribute given, then use black on white
    if (!(c & ~0xFF))
  100105:	a9 00 ff ff ff       	test   $0xffffff00,%eax
  10010a:	75 03                	jne    10010f <video_putc+0x1d>
        c |= 0x0700;
  10010c:	80 cc 07             	or     $0x7,%ah

    switch (c & 0xff) {
  10010f:	0f b6 d0             	movzbl %al,%edx
  100112:	3c 0a                	cmp    $0xa,%al
  100114:	0f 84 12 01 00 00    	je     10022c <video_putc+0x13a>
  10011a:	83 fa 0a             	cmp    $0xa,%edx
  10011d:	7f 51                	jg     100170 <video_putc+0x7e>
  10011f:	83 fa 08             	cmp    $0x8,%edx
  100122:	0f 84 d6 00 00 00    	je     1001fe <video_putc+0x10c>
  100128:	83 fa 09             	cmp    $0x9,%edx
  10012b:	0f 85 11 01 00 00    	jne    100242 <video_putc+0x150>
        /* fallthru */
    case '\r':
        terminal.crt_pos -= (terminal.crt_pos % CRT_COLS);
        break;
    case '\t':
        video_putc(' ');
  100131:	83 ec 0c             	sub    $0xc,%esp
  100134:	6a 20                	push   $0x20
  100136:	e8 b7 ff ff ff       	call   1000f2 <video_putc>
        video_putc(' ');
  10013b:	c7 04 24 20 00 00 00 	movl   $0x20,(%esp)
  100142:	e8 ab ff ff ff       	call   1000f2 <video_putc>
        video_putc(' ');
  100147:	c7 04 24 20 00 00 00 	movl   $0x20,(%esp)
  10014e:	e8 9f ff ff ff       	call   1000f2 <video_putc>
        video_putc(' ');
  100153:	c7 04 24 20 00 00 00 	movl   $0x20,(%esp)
  10015a:	e8 93 ff ff ff       	call   1000f2 <video_putc>
        video_putc(' ');
  10015f:	c7 04 24 20 00 00 00 	movl   $0x20,(%esp)
  100166:	e8 87 ff ff ff       	call   1000f2 <video_putc>
        break;
  10016b:	83 c4 10             	add    $0x10,%esp
  10016e:	eb 26                	jmp    100196 <video_putc+0xa4>
    switch (c & 0xff) {
  100170:	83 fa 0d             	cmp    $0xd,%edx
  100173:	0f 85 c9 00 00 00    	jne    100242 <video_putc+0x150>
        terminal.crt_pos -= (terminal.crt_pos % CRT_COLS);
  100179:	0f b7 83 04 80 02 00 	movzwl 0x28004(%ebx),%eax
  100180:	69 c0 cd cc 00 00    	imul   $0xcccd,%eax,%eax
  100186:	c1 e8 16             	shr    $0x16,%eax
  100189:	8d 04 80             	lea    (%eax,%eax,4),%eax
  10018c:	c1 e0 04             	shl    $0x4,%eax
  10018f:	66 89 83 04 80 02 00 	mov    %ax,0x28004(%ebx)
    default:
        terminal.crt_buf[terminal.crt_pos++] = c;  /* write the character */
        break;
    }

    if (terminal.crt_pos >= CRT_SIZE) {
  100196:	66 81 bb 04 80 02 00 	cmpw   $0x7cf,0x28004(%ebx)
  10019d:	cf 07 
  10019f:	0f 87 c1 00 00 00    	ja     100266 <video_putc+0x174>
            terminal.crt_buf[i] = 0x0700 | ' ';
        terminal.crt_pos -= CRT_COLS;
    }

    /* move that little blinky thing */
    outb(addr_6845, 14);
  1001a5:	83 ec 08             	sub    $0x8,%esp
  1001a8:	6a 0e                	push   $0xe
  1001aa:	ff b3 0c 80 02 00    	push   0x2800c(%ebx)
  1001b0:	e8 bb 33 00 00       	call   103570 <outb>
    outb(addr_6845 + 1, terminal.crt_pos >> 8);
  1001b5:	8b 83 0c 80 02 00    	mov    0x2800c(%ebx),%eax
  1001bb:	83 c0 01             	add    $0x1,%eax
  1001be:	83 c4 08             	add    $0x8,%esp
  1001c1:	0f b6 93 05 80 02 00 	movzbl 0x28005(%ebx),%edx
  1001c8:	52                   	push   %edx
  1001c9:	50                   	push   %eax
  1001ca:	e8 a1 33 00 00       	call   103570 <outb>
    outb(addr_6845, 15);
  1001cf:	83 c4 08             	add    $0x8,%esp
  1001d2:	6a 0f                	push   $0xf
  1001d4:	ff b3 0c 80 02 00    	push   0x2800c(%ebx)
  1001da:	e8 91 33 00 00       	call   103570 <outb>
    outb(addr_6845 + 1, terminal.crt_pos);
  1001df:	8b 83 0c 80 02 00    	mov    0x2800c(%ebx),%eax
  1001e5:	83 c0 01             	add    $0x1,%eax
  1001e8:	83 c4 08             	add    $0x8,%esp
  1001eb:	0f b6 93 04 80 02 00 	movzbl 0x28004(%ebx),%edx
  1001f2:	52                   	push   %edx
  1001f3:	50                   	push   %eax
  1001f4:	e8 77 33 00 00       	call   103570 <outb>
}
  1001f9:	83 c4 18             	add    $0x18,%esp
  1001fc:	5b                   	pop    %ebx
  1001fd:	c3                   	ret    
        if (terminal.crt_pos > 0) {
  1001fe:	0f b7 93 04 80 02 00 	movzwl 0x28004(%ebx),%edx
  100205:	66 85 d2             	test   %dx,%dx
  100208:	74 8c                	je     100196 <video_putc+0xa4>
            terminal.crt_pos--;
  10020a:	83 ea 01             	sub    $0x1,%edx
  10020d:	66 89 93 04 80 02 00 	mov    %dx,0x28004(%ebx)
            terminal.crt_buf[terminal.crt_pos] = (c & ~0xff) | ' ';
  100214:	b0 00                	mov    $0x0,%al
  100216:	0f b7 d2             	movzwl %dx,%edx
  100219:	01 d2                	add    %edx,%edx
  10021b:	03 93 00 80 02 00    	add    0x28000(%ebx),%edx
  100221:	83 c8 20             	or     $0x20,%eax
  100224:	66 89 02             	mov    %ax,(%edx)
  100227:	e9 6a ff ff ff       	jmp    100196 <video_putc+0xa4>
        terminal.crt_pos += CRT_COLS;
  10022c:	0f b7 83 04 80 02 00 	movzwl 0x28004(%ebx),%eax
  100233:	83 c0 50             	add    $0x50,%eax
  100236:	66 89 83 04 80 02 00 	mov    %ax,0x28004(%ebx)
  10023d:	e9 37 ff ff ff       	jmp    100179 <video_putc+0x87>
        terminal.crt_buf[terminal.crt_pos++] = c;  /* write the character */
  100242:	0f b7 93 04 80 02 00 	movzwl 0x28004(%ebx),%edx
  100249:	8d 4a 01             	lea    0x1(%edx),%ecx
  10024c:	66 89 8b 04 80 02 00 	mov    %cx,0x28004(%ebx)
  100253:	0f b7 d2             	movzwl %dx,%edx
  100256:	01 d2                	add    %edx,%edx
  100258:	03 93 00 80 02 00    	add    0x28000(%ebx),%edx
  10025e:	66 89 02             	mov    %ax,(%edx)
        break;
  100261:	e9 30 ff ff ff       	jmp    100196 <video_putc+0xa4>
        memmove(terminal.crt_buf, terminal.crt_buf + CRT_COLS,
  100266:	8b 83 00 80 02 00    	mov    0x28000(%ebx),%eax
  10026c:	8d 90 a0 00 00 00    	lea    0xa0(%eax),%edx
  100272:	83 ec 04             	sub    $0x4,%esp
  100275:	68 00 0f 00 00       	push   $0xf00
  10027a:	52                   	push   %edx
  10027b:	50                   	push   %eax
  10027c:	e8 23 25 00 00       	call   1027a4 <memmove>
        for (i = CRT_SIZE - CRT_COLS; i < CRT_SIZE; i++)
  100281:	83 c4 10             	add    $0x10,%esp
  100284:	b8 80 07 00 00       	mov    $0x780,%eax
  100289:	eb 11                	jmp    10029c <video_putc+0x1aa>
            terminal.crt_buf[i] = 0x0700 | ' ';
  10028b:	8d 14 00             	lea    (%eax,%eax,1),%edx
  10028e:	03 93 00 80 02 00    	add    0x28000(%ebx),%edx
  100294:	66 c7 02 20 07       	movw   $0x720,(%edx)
        for (i = CRT_SIZE - CRT_COLS; i < CRT_SIZE; i++)
  100299:	83 c0 01             	add    $0x1,%eax
  10029c:	3d cf 07 00 00       	cmp    $0x7cf,%eax
  1002a1:	7e e8                	jle    10028b <video_putc+0x199>
        terminal.crt_pos -= CRT_COLS;
  1002a3:	0f b7 83 04 80 02 00 	movzwl 0x28004(%ebx),%eax
  1002aa:	83 e8 50             	sub    $0x50,%eax
  1002ad:	66 89 83 04 80 02 00 	mov    %ax,0x28004(%ebx)
  1002b4:	e9 ec fe ff ff       	jmp    1001a5 <video_putc+0xb3>

001002b9 <video_set_cursor>:

void video_set_cursor(int x, int y)
{
  1002b9:	e8 4a 00 00 00       	call   100308 <__x86.get_pc_thunk.cx>
  1002be:	81 c1 42 ad 00 00    	add    $0xad42,%ecx
  1002c4:	8b 44 24 04          	mov    0x4(%esp),%eax
    terminal.crt_pos = x * CRT_COLS + y;
  1002c8:	8d 04 80             	lea    (%eax,%eax,4),%eax
  1002cb:	c1 e0 04             	shl    $0x4,%eax
  1002ce:	89 c2                	mov    %eax,%edx
  1002d0:	66 03 54 24 08       	add    0x8(%esp),%dx
  1002d5:	66 89 91 04 80 02 00 	mov    %dx,0x28004(%ecx)
}
  1002dc:	c3                   	ret    

001002dd <video_clear_screen>:

void video_clear_screen()
{
  1002dd:	e8 26 00 00 00       	call   100308 <__x86.get_pc_thunk.cx>
  1002e2:	81 c1 1e ad 00 00    	add    $0xad1e,%ecx
    int i;
    for (i = 0; i < CRT_SIZE; i++) {
  1002e8:	b8 00 00 00 00       	mov    $0x0,%eax
  1002ed:	eb 11                	jmp    100300 <video_clear_screen+0x23>
        terminal.crt_buf[i] = ' ';
  1002ef:	8d 14 00             	lea    (%eax,%eax,1),%edx
  1002f2:	03 91 00 80 02 00    	add    0x28000(%ecx),%edx
  1002f8:	66 c7 02 20 00       	movw   $0x20,(%edx)
    for (i = 0; i < CRT_SIZE; i++) {
  1002fd:	83 c0 01             	add    $0x1,%eax
  100300:	3d cf 07 00 00       	cmp    $0x7cf,%eax
  100305:	7e e8                	jle    1002ef <video_clear_screen+0x12>
    }
}
  100307:	c3                   	ret    

00100308 <__x86.get_pc_thunk.cx>:
  100308:	8b 0c 24             	mov    (%esp),%ecx
  10030b:	c3                   	ret    

0010030c <__x86.get_pc_thunk.bx>:
  10030c:	8b 1c 24             	mov    (%esp),%ebx
  10030f:	c3                   	ret    

00100310 <cons_init>:
    char buf[CONSOLE_BUFFER_SIZE];
    uint32_t rpos, wpos;
} cons;

void cons_init()
{
  100310:	53                   	push   %ebx
  100311:	83 ec 0c             	sub    $0xc,%esp
  100314:	e8 f3 ff ff ff       	call   10030c <__x86.get_pc_thunk.bx>
  100319:	81 c3 e7 ac 00 00    	add    $0xace7,%ebx
    memset(&cons, 0x0, sizeof(cons));
  10031f:	68 08 02 00 00       	push   $0x208
  100324:	6a 00                	push   $0x0
  100326:	8d 83 20 80 02 00    	lea    0x28020(%ebx),%eax
  10032c:	50                   	push   %eax
  10032d:	e8 27 24 00 00       	call   102759 <memset>
    serial_init();
  100332:	e8 48 03 00 00       	call   10067f <serial_init>
    video_init();
  100337:	e8 c4 fc ff ff       	call   100000 <video_init>
}
  10033c:	83 c4 18             	add    $0x18,%esp
  10033f:	5b                   	pop    %ebx
  100340:	c3                   	ret    

00100341 <cons_intr>:

void cons_intr(int (*proc)(void))
{
  100341:	56                   	push   %esi
  100342:	53                   	push   %ebx
  100343:	83 ec 04             	sub    $0x4,%esp
  100346:	e8 c1 ff ff ff       	call   10030c <__x86.get_pc_thunk.bx>
  10034b:	81 c3 b5 ac 00 00    	add    $0xacb5,%ebx
  100351:	8b 74 24 10          	mov    0x10(%esp),%esi
    int c;

    while ((c = (*proc)()) != -1) {
  100355:	ff d6                	call   *%esi
  100357:	83 f8 ff             	cmp    $0xffffffff,%eax
  10035a:	74 2e                	je     10038a <cons_intr+0x49>
        if (c == 0)
  10035c:	85 c0                	test   %eax,%eax
  10035e:	74 f5                	je     100355 <cons_intr+0x14>
            continue;
        cons.buf[cons.wpos++] = c;
  100360:	8b 8b 24 82 02 00    	mov    0x28224(%ebx),%ecx
  100366:	8d 51 01             	lea    0x1(%ecx),%edx
  100369:	89 93 24 82 02 00    	mov    %edx,0x28224(%ebx)
  10036f:	88 84 0b 20 80 02 00 	mov    %al,0x28020(%ebx,%ecx,1)
        if (cons.wpos == CONSOLE_BUFFER_SIZE)
  100376:	81 fa 00 02 00 00    	cmp    $0x200,%edx
  10037c:	75 d7                	jne    100355 <cons_intr+0x14>
            cons.wpos = 0;
  10037e:	c7 83 24 82 02 00 00 	movl   $0x0,0x28224(%ebx)
  100385:	00 00 00 
  100388:	eb cb                	jmp    100355 <cons_intr+0x14>
    }
}
  10038a:	83 c4 04             	add    $0x4,%esp
  10038d:	5b                   	pop    %ebx
  10038e:	5e                   	pop    %esi
  10038f:	c3                   	ret    

00100390 <cons_getc>:

char cons_getc(void)
{
  100390:	53                   	push   %ebx
  100391:	83 ec 08             	sub    $0x8,%esp
  100394:	e8 73 ff ff ff       	call   10030c <__x86.get_pc_thunk.bx>
  100399:	81 c3 67 ac 00 00    	add    $0xac67,%ebx
    int c;

    // poll for any pending input characters,
    // so that this function works even when interrupts are disabled
    // (e.g., when called from the kernel monitor).
    serial_intr();
  10039f:	e8 35 02 00 00       	call   1005d9 <serial_intr>
    keyboard_intr();
  1003a4:	e8 e7 04 00 00       	call   100890 <keyboard_intr>

    // grab the next character from the input buffer.
    if (cons.rpos != cons.wpos) {
  1003a9:	8b 83 20 82 02 00    	mov    0x28220(%ebx),%eax
  1003af:	3b 83 24 82 02 00    	cmp    0x28224(%ebx),%eax
  1003b5:	74 25                	je     1003dc <cons_getc+0x4c>
        c = cons.buf[cons.rpos++];
  1003b7:	8d 50 01             	lea    0x1(%eax),%edx
  1003ba:	89 93 20 82 02 00    	mov    %edx,0x28220(%ebx)
  1003c0:	0f b6 84 03 20 80 02 	movzbl 0x28020(%ebx,%eax,1),%eax
  1003c7:	00 
        if (cons.rpos == CONSOLE_BUFFER_SIZE)
  1003c8:	81 fa 00 02 00 00    	cmp    $0x200,%edx
  1003ce:	75 11                	jne    1003e1 <cons_getc+0x51>
            cons.rpos = 0;
  1003d0:	c7 83 20 82 02 00 00 	movl   $0x0,0x28220(%ebx)
  1003d7:	00 00 00 
        return c;
  1003da:	eb 05                	jmp    1003e1 <cons_getc+0x51>
    }
    return 0;
  1003dc:	b8 00 00 00 00       	mov    $0x0,%eax
}
  1003e1:	83 c4 08             	add    $0x8,%esp
  1003e4:	5b                   	pop    %ebx
  1003e5:	c3                   	ret    

001003e6 <cons_putc>:

void cons_putc(char c)
{
  1003e6:	56                   	push   %esi
  1003e7:	53                   	push   %ebx
  1003e8:	83 ec 10             	sub    $0x10,%esp
  1003eb:	e8 1c ff ff ff       	call   10030c <__x86.get_pc_thunk.bx>
  1003f0:	81 c3 10 ac 00 00    	add    $0xac10,%ebx
    serial_putc(c);
  1003f6:	0f be 74 24 1c       	movsbl 0x1c(%esp),%esi
  1003fb:	56                   	push   %esi
  1003fc:	e8 09 02 00 00       	call   10060a <serial_putc>
    video_putc(c);
  100401:	89 34 24             	mov    %esi,(%esp)
  100404:	e8 e9 fc ff ff       	call   1000f2 <video_putc>
}
  100409:	83 c4 14             	add    $0x14,%esp
  10040c:	5b                   	pop    %ebx
  10040d:	5e                   	pop    %esi
  10040e:	c3                   	ret    

0010040f <getchar>:

char getchar(void)
{
  10040f:	83 ec 0c             	sub    $0xc,%esp
    char c;

    while ((c = cons_getc()) == 0)
  100412:	e8 79 ff ff ff       	call   100390 <cons_getc>
  100417:	84 c0                	test   %al,%al
  100419:	74 f7                	je     100412 <getchar+0x3>
        /* do nothing */ ;
    return c;
}
  10041b:	83 c4 0c             	add    $0xc,%esp
  10041e:	c3                   	ret    

0010041f <putchar>:

void putchar(char c)
{
  10041f:	83 ec 18             	sub    $0x18,%esp
    cons_putc(c);
  100422:	0f be 44 24 1c       	movsbl 0x1c(%esp),%eax
  100427:	50                   	push   %eax
  100428:	e8 b9 ff ff ff       	call   1003e6 <cons_putc>
}
  10042d:	83 c4 1c             	add    $0x1c,%esp
  100430:	c3                   	ret    

00100431 <readline>:

char *readline(const char *prompt)
{
  100431:	57                   	push   %edi
  100432:	56                   	push   %esi
  100433:	53                   	push   %ebx
  100434:	e8 d9 00 00 00       	call   100512 <__x86.get_pc_thunk.si>
  100439:	81 c6 c7 ab 00 00    	add    $0xabc7,%esi
  10043f:	8b 44 24 10          	mov    0x10(%esp),%eax
    int i;
    char c;

    if (prompt != NULL)
  100443:	85 c0                	test   %eax,%eax
  100445:	74 15                	je     10045c <readline+0x2b>
        dprintf("%s", prompt);
  100447:	83 ec 08             	sub    $0x8,%esp
  10044a:	50                   	push   %eax
  10044b:	8d 86 0e b0 ff ff    	lea    -0x4ff2(%esi),%eax
  100451:	50                   	push   %eax
  100452:	89 f3                	mov    %esi,%ebx
  100454:	e8 a8 26 00 00       	call   102b01 <dprintf>
  100459:	83 c4 10             	add    $0x10,%esp
        } else if ((c == '\b' || c == '\x7f') && i > 0) {
            putchar('\b');
            i--;
        } else if (c >= ' ' && i < BUFLEN - 1) {
            putchar(c);
            linebuf[i++] = c;
  10045c:	bf 00 00 00 00       	mov    $0x0,%edi
  100461:	eb 44                	jmp    1004a7 <readline+0x76>
            dprintf("read error: %e\n", c);
  100463:	83 ec 08             	sub    $0x8,%esp
  100466:	0f be d8             	movsbl %al,%ebx
  100469:	53                   	push   %ebx
  10046a:	8d 86 11 b0 ff ff    	lea    -0x4fef(%esi),%eax
  100470:	50                   	push   %eax
  100471:	89 f3                	mov    %esi,%ebx
  100473:	e8 89 26 00 00       	call   102b01 <dprintf>
            return NULL;
  100478:	83 c4 10             	add    $0x10,%esp
  10047b:	b8 00 00 00 00       	mov    $0x0,%eax
            putchar('\n');
            linebuf[i] = 0;
            return linebuf;
        }
    }
}
  100480:	5b                   	pop    %ebx
  100481:	5e                   	pop    %esi
  100482:	5f                   	pop    %edi
  100483:	c3                   	ret    
        } else if (c >= ' ' && i < BUFLEN - 1) {
  100484:	80 fb 1f             	cmp    $0x1f,%bl
  100487:	0f 9f c2             	setg   %dl
  10048a:	81 ff fe 03 00 00    	cmp    $0x3fe,%edi
  100490:	0f 9e c0             	setle  %al
  100493:	84 c2                	test   %al,%dl
  100495:	75 40                	jne    1004d7 <readline+0xa6>
        } else if (c == '\n' || c == '\r') {
  100497:	80 fb 0a             	cmp    $0xa,%bl
  10049a:	0f 94 c0             	sete   %al
  10049d:	80 fb 0d             	cmp    $0xd,%bl
  1004a0:	0f 94 c2             	sete   %dl
  1004a3:	08 d0                	or     %dl,%al
  1004a5:	75 4b                	jne    1004f2 <readline+0xc1>
        c = getchar();
  1004a7:	e8 63 ff ff ff       	call   10040f <getchar>
  1004ac:	89 c3                	mov    %eax,%ebx
        if (c < 0) {
  1004ae:	84 c0                	test   %al,%al
  1004b0:	78 b1                	js     100463 <readline+0x32>
        } else if ((c == '\b' || c == '\x7f') && i > 0) {
  1004b2:	3c 08                	cmp    $0x8,%al
  1004b4:	0f 94 c0             	sete   %al
  1004b7:	80 fb 7f             	cmp    $0x7f,%bl
  1004ba:	0f 94 c2             	sete   %dl
  1004bd:	08 d0                	or     %dl,%al
  1004bf:	74 c3                	je     100484 <readline+0x53>
  1004c1:	85 ff                	test   %edi,%edi
  1004c3:	7e bf                	jle    100484 <readline+0x53>
            putchar('\b');
  1004c5:	83 ec 0c             	sub    $0xc,%esp
  1004c8:	6a 08                	push   $0x8
  1004ca:	e8 50 ff ff ff       	call   10041f <putchar>
            i--;
  1004cf:	83 ef 01             	sub    $0x1,%edi
  1004d2:	83 c4 10             	add    $0x10,%esp
  1004d5:	eb d0                	jmp    1004a7 <readline+0x76>
            putchar(c);
  1004d7:	83 ec 0c             	sub    $0xc,%esp
  1004da:	0f be c3             	movsbl %bl,%eax
  1004dd:	50                   	push   %eax
  1004de:	e8 3c ff ff ff       	call   10041f <putchar>
            linebuf[i++] = c;
  1004e3:	88 9c 3e 40 82 02 00 	mov    %bl,0x28240(%esi,%edi,1)
  1004ea:	83 c4 10             	add    $0x10,%esp
  1004ed:	8d 7f 01             	lea    0x1(%edi),%edi
  1004f0:	eb b5                	jmp    1004a7 <readline+0x76>
            putchar('\n');
  1004f2:	83 ec 0c             	sub    $0xc,%esp
  1004f5:	6a 0a                	push   $0xa
  1004f7:	e8 23 ff ff ff       	call   10041f <putchar>
            linebuf[i] = 0;
  1004fc:	c6 84 3e 40 82 02 00 	movb   $0x0,0x28240(%esi,%edi,1)
  100503:	00 
            return linebuf;
  100504:	83 c4 10             	add    $0x10,%esp
  100507:	8d 86 40 82 02 00    	lea    0x28240(%esi),%eax
  10050d:	e9 6e ff ff ff       	jmp    100480 <readline+0x4f>

00100512 <__x86.get_pc_thunk.si>:
  100512:	8b 34 24             	mov    (%esp),%esi
  100515:	c3                   	ret    

00100516 <serial_proc_data>:
    inb(0x84);
    inb(0x84);
}

static int serial_proc_data(void)
{
  100516:	53                   	push   %ebx
  100517:	83 ec 14             	sub    $0x14,%esp
  10051a:	e8 ed fd ff ff       	call   10030c <__x86.get_pc_thunk.bx>
  10051f:	81 c3 e1 aa 00 00    	add    $0xaae1,%ebx
    if (!(inb(COM1 + COM_LSR) & COM_LSR_DATA))
  100525:	68 fd 03 00 00       	push   $0x3fd
  10052a:	e8 29 30 00 00       	call   103558 <inb>
  10052f:	83 c4 10             	add    $0x10,%esp
  100532:	a8 01                	test   $0x1,%al
  100534:	74 18                	je     10054e <serial_proc_data+0x38>
        return -1;
    return inb(COM1 + COM_RX);
  100536:	83 ec 0c             	sub    $0xc,%esp
  100539:	68 f8 03 00 00       	push   $0x3f8
  10053e:	e8 15 30 00 00       	call   103558 <inb>
  100543:	0f b6 c0             	movzbl %al,%eax
  100546:	83 c4 10             	add    $0x10,%esp
}
  100549:	83 c4 08             	add    $0x8,%esp
  10054c:	5b                   	pop    %ebx
  10054d:	c3                   	ret    
        return -1;
  10054e:	b8 ff ff ff ff       	mov    $0xffffffff,%eax
  100553:	eb f4                	jmp    100549 <serial_proc_data+0x33>

00100555 <delay>:
{
  100555:	53                   	push   %ebx
  100556:	83 ec 14             	sub    $0x14,%esp
  100559:	e8 ae fd ff ff       	call   10030c <__x86.get_pc_thunk.bx>
  10055e:	81 c3 a2 aa 00 00    	add    $0xaaa2,%ebx
    inb(0x84);
  100564:	68 84 00 00 00       	push   $0x84
  100569:	e8 ea 2f 00 00       	call   103558 <inb>
    inb(0x84);
  10056e:	c7 04 24 84 00 00 00 	movl   $0x84,(%esp)
  100575:	e8 de 2f 00 00       	call   103558 <inb>
    inb(0x84);
  10057a:	c7 04 24 84 00 00 00 	movl   $0x84,(%esp)
  100581:	e8 d2 2f 00 00       	call   103558 <inb>
    inb(0x84);
  100586:	c7 04 24 84 00 00 00 	movl   $0x84,(%esp)
  10058d:	e8 c6 2f 00 00       	call   103558 <inb>
}
  100592:	83 c4 18             	add    $0x18,%esp
  100595:	5b                   	pop    %ebx
  100596:	c3                   	ret    

00100597 <serial_reformatnewline>:
    if (serial_exists)
        cons_intr(serial_proc_data);
}

static int serial_reformatnewline(int c, int p)
{
  100597:	56                   	push   %esi
  100598:	53                   	push   %ebx
  100599:	83 ec 04             	sub    $0x4,%esp
  10059c:	e8 6b fd ff ff       	call   10030c <__x86.get_pc_thunk.bx>
  1005a1:	81 c3 5f aa 00 00    	add    $0xaa5f,%ebx
    int nl = '\n';
    /* POSIX requires newline on the serial line to
     * be a CR-LF pair. Without this, you get a malformed output
     * with clients like minicom or screen
     */
    if (c == nl) {
  1005a7:	83 f8 0a             	cmp    $0xa,%eax
  1005aa:	74 0b                	je     1005b7 <serial_reformatnewline+0x20>
        outb(p, cr);
        outb(p, nl);
        return 1;
    } else
        return 0;
  1005ac:	b8 00 00 00 00       	mov    $0x0,%eax
}
  1005b1:	83 c4 04             	add    $0x4,%esp
  1005b4:	5b                   	pop    %ebx
  1005b5:	5e                   	pop    %esi
  1005b6:	c3                   	ret    
  1005b7:	89 d6                	mov    %edx,%esi
        outb(p, cr);
  1005b9:	83 ec 08             	sub    $0x8,%esp
  1005bc:	6a 0d                	push   $0xd
  1005be:	52                   	push   %edx
  1005bf:	e8 ac 2f 00 00       	call   103570 <outb>
        outb(p, nl);
  1005c4:	83 c4 08             	add    $0x8,%esp
  1005c7:	6a 0a                	push   $0xa
  1005c9:	56                   	push   %esi
  1005ca:	e8 a1 2f 00 00       	call   103570 <outb>
        return 1;
  1005cf:	83 c4 10             	add    $0x10,%esp
  1005d2:	b8 01 00 00 00       	mov    $0x1,%eax
  1005d7:	eb d8                	jmp    1005b1 <serial_reformatnewline+0x1a>

001005d9 <serial_intr>:
{
  1005d9:	53                   	push   %ebx
  1005da:	83 ec 08             	sub    $0x8,%esp
  1005dd:	e8 2a fd ff ff       	call   10030c <__x86.get_pc_thunk.bx>
  1005e2:	81 c3 1e aa 00 00    	add    $0xaa1e,%ebx
    if (serial_exists)
  1005e8:	80 bb 40 86 02 00 00 	cmpb   $0x0,0x28640(%ebx)
  1005ef:	75 05                	jne    1005f6 <serial_intr+0x1d>
}
  1005f1:	83 c4 08             	add    $0x8,%esp
  1005f4:	5b                   	pop    %ebx
  1005f5:	c3                   	ret    
        cons_intr(serial_proc_data);
  1005f6:	83 ec 0c             	sub    $0xc,%esp
  1005f9:	8d 83 16 55 ff ff    	lea    -0xaaea(%ebx),%eax
  1005ff:	50                   	push   %eax
  100600:	e8 3c fd ff ff       	call   100341 <cons_intr>
  100605:	83 c4 10             	add    $0x10,%esp
}
  100608:	eb e7                	jmp    1005f1 <serial_intr+0x18>

0010060a <serial_putc>:

void serial_putc(char c)
{
  10060a:	57                   	push   %edi
  10060b:	56                   	push   %esi
  10060c:	53                   	push   %ebx
  10060d:	e8 fa fc ff ff       	call   10030c <__x86.get_pc_thunk.bx>
  100612:	81 c3 ee a9 00 00    	add    $0xa9ee,%ebx
  100618:	8b 7c 24 10          	mov    0x10(%esp),%edi
    if (!serial_exists)
  10061c:	80 bb 40 86 02 00 00 	cmpb   $0x0,0x28640(%ebx)
  100623:	74 3e                	je     100663 <serial_putc+0x59>
        return;

    int i;
    for (i = 0; !(inb(COM1 + COM_LSR) & COM_LSR_TXRDY) && i < 12800; i++)
  100625:	be 00 00 00 00       	mov    $0x0,%esi
  10062a:	eb 08                	jmp    100634 <serial_putc+0x2a>
        delay();
  10062c:	e8 24 ff ff ff       	call   100555 <delay>
    for (i = 0; !(inb(COM1 + COM_LSR) & COM_LSR_TXRDY) && i < 12800; i++)
  100631:	83 c6 01             	add    $0x1,%esi
  100634:	83 ec 0c             	sub    $0xc,%esp
  100637:	68 fd 03 00 00       	push   $0x3fd
  10063c:	e8 17 2f 00 00       	call   103558 <inb>
  100641:	83 c4 10             	add    $0x10,%esp
  100644:	a8 20                	test   $0x20,%al
  100646:	75 08                	jne    100650 <serial_putc+0x46>
  100648:	81 fe ff 31 00 00    	cmp    $0x31ff,%esi
  10064e:	7e dc                	jle    10062c <serial_putc+0x22>

    if (!serial_reformatnewline(c, COM1 + COM_TX))
  100650:	89 f8                	mov    %edi,%eax
  100652:	0f be c0             	movsbl %al,%eax
  100655:	ba f8 03 00 00       	mov    $0x3f8,%edx
  10065a:	e8 38 ff ff ff       	call   100597 <serial_reformatnewline>
  10065f:	85 c0                	test   %eax,%eax
  100661:	74 04                	je     100667 <serial_putc+0x5d>
        outb(COM1 + COM_TX, c);
}
  100663:	5b                   	pop    %ebx
  100664:	5e                   	pop    %esi
  100665:	5f                   	pop    %edi
  100666:	c3                   	ret    
        outb(COM1 + COM_TX, c);
  100667:	83 ec 08             	sub    $0x8,%esp
  10066a:	89 f8                	mov    %edi,%eax
  10066c:	0f b6 f8             	movzbl %al,%edi
  10066f:	57                   	push   %edi
  100670:	68 f8 03 00 00       	push   $0x3f8
  100675:	e8 f6 2e 00 00       	call   103570 <outb>
  10067a:	83 c4 10             	add    $0x10,%esp
  10067d:	eb e4                	jmp    100663 <serial_putc+0x59>

0010067f <serial_init>:

void serial_init(void)
{
  10067f:	53                   	push   %ebx
  100680:	83 ec 10             	sub    $0x10,%esp
  100683:	e8 84 fc ff ff       	call   10030c <__x86.get_pc_thunk.bx>
  100688:	81 c3 78 a9 00 00    	add    $0xa978,%ebx
    /* turn off interrupt */
    outb(COM1 + COM_IER, 0);
  10068e:	6a 00                	push   $0x0
  100690:	68 f9 03 00 00       	push   $0x3f9
  100695:	e8 d6 2e 00 00       	call   103570 <outb>

    /* set DLAB */
    outb(COM1 + COM_LCR, COM_LCR_DLAB);
  10069a:	83 c4 08             	add    $0x8,%esp
  10069d:	68 80 00 00 00       	push   $0x80
  1006a2:	68 fb 03 00 00       	push   $0x3fb
  1006a7:	e8 c4 2e 00 00       	call   103570 <outb>

    /* set baud rate */
    outb(COM1 + COM_DLL, 0x0001 & 0xff);
  1006ac:	83 c4 08             	add    $0x8,%esp
  1006af:	6a 01                	push   $0x1
  1006b1:	68 f8 03 00 00       	push   $0x3f8
  1006b6:	e8 b5 2e 00 00       	call   103570 <outb>
    outb(COM1 + COM_DLM, 0x0001 >> 8);
  1006bb:	83 c4 08             	add    $0x8,%esp
  1006be:	6a 00                	push   $0x0
  1006c0:	68 f9 03 00 00       	push   $0x3f9
  1006c5:	e8 a6 2e 00 00       	call   103570 <outb>

    /* Set the line status. */
    outb(COM1 + COM_LCR, COM_LCR_WLEN8 & ~COM_LCR_DLAB);
  1006ca:	83 c4 08             	add    $0x8,%esp
  1006cd:	6a 03                	push   $0x3
  1006cf:	68 fb 03 00 00       	push   $0x3fb
  1006d4:	e8 97 2e 00 00       	call   103570 <outb>

    /* Enable the FIFO. */
    outb(COM1 + COM_FCR, 0xc7);
  1006d9:	83 c4 08             	add    $0x8,%esp
  1006dc:	68 c7 00 00 00       	push   $0xc7
  1006e1:	68 fa 03 00 00       	push   $0x3fa
  1006e6:	e8 85 2e 00 00       	call   103570 <outb>

    /* Turn on DTR, RTS, and OUT2. */
    outb(COM1 + COM_MCR, 0x0b);
  1006eb:	83 c4 08             	add    $0x8,%esp
  1006ee:	6a 0b                	push   $0xb
  1006f0:	68 fc 03 00 00       	push   $0x3fc
  1006f5:	e8 76 2e 00 00       	call   103570 <outb>

    // Clear any preexisting overrun indications and interrupts
    // Serial COM1 doesn't exist if COM_LSR returns 0xFF
    serial_exists = (inb(COM1 + COM_LSR) != 0xFF);
  1006fa:	c7 04 24 fd 03 00 00 	movl   $0x3fd,(%esp)
  100701:	e8 52 2e 00 00       	call   103558 <inb>
  100706:	3c ff                	cmp    $0xff,%al
  100708:	0f 95 83 40 86 02 00 	setne  0x28640(%ebx)
    (void) inb(COM1 + COM_IIR);
  10070f:	c7 04 24 fa 03 00 00 	movl   $0x3fa,(%esp)
  100716:	e8 3d 2e 00 00       	call   103558 <inb>
    (void) inb(COM1 + COM_RX);
  10071b:	c7 04 24 f8 03 00 00 	movl   $0x3f8,(%esp)
  100722:	e8 31 2e 00 00       	call   103558 <inb>
}
  100727:	83 c4 18             	add    $0x18,%esp
  10072a:	5b                   	pop    %ebx
  10072b:	c3                   	ret    

0010072c <serial_intenable>:

void serial_intenable(void)
{
  10072c:	53                   	push   %ebx
  10072d:	83 ec 08             	sub    $0x8,%esp
  100730:	e8 d7 fb ff ff       	call   10030c <__x86.get_pc_thunk.bx>
  100735:	81 c3 cb a8 00 00    	add    $0xa8cb,%ebx
    if (serial_exists) {
  10073b:	80 bb 40 86 02 00 00 	cmpb   $0x0,0x28640(%ebx)
  100742:	75 05                	jne    100749 <serial_intenable+0x1d>
        outb(COM1 + COM_IER, 1);
        serial_intr();
    }
}
  100744:	83 c4 08             	add    $0x8,%esp
  100747:	5b                   	pop    %ebx
  100748:	c3                   	ret    
        outb(COM1 + COM_IER, 1);
  100749:	83 ec 08             	sub    $0x8,%esp
  10074c:	6a 01                	push   $0x1
  10074e:	68 f9 03 00 00       	push   $0x3f9
  100753:	e8 18 2e 00 00       	call   103570 <outb>
        serial_intr();
  100758:	e8 7c fe ff ff       	call   1005d9 <serial_intr>
  10075d:	83 c4 10             	add    $0x10,%esp
}
  100760:	eb e2                	jmp    100744 <serial_intenable+0x18>

00100762 <kbd_proc_data>:
/*
 * Get data from the keyboard. If we finish a character, return it. Else 0.
 * Return -1 if no data.
 */
static int kbd_proc_data(void)
{
  100762:	56                   	push   %esi
  100763:	53                   	push   %ebx
  100764:	83 ec 10             	sub    $0x10,%esp
  100767:	e8 a0 fb ff ff       	call   10030c <__x86.get_pc_thunk.bx>
  10076c:	81 c3 94 a8 00 00    	add    $0xa894,%ebx
    int c;
    uint8_t data;
    static uint32_t shift;

    if ((inb(KBSTATP) & KBS_DIB) == 0)
  100772:	6a 64                	push   $0x64
  100774:	e8 df 2d 00 00       	call   103558 <inb>
  100779:	83 c4 10             	add    $0x10,%esp
  10077c:	a8 01                	test   $0x1,%al
  10077e:	0f 84 05 01 00 00    	je     100889 <kbd_proc_data+0x127>
        return -1;

    data = inb(KBDATAP);
  100784:	83 ec 0c             	sub    $0xc,%esp
  100787:	6a 60                	push   $0x60
  100789:	e8 ca 2d 00 00       	call   103558 <inb>

    if (data == 0xE0) {
  10078e:	83 c4 10             	add    $0x10,%esp
  100791:	3c e0                	cmp    $0xe0,%al
  100793:	0f 84 82 00 00 00    	je     10081b <kbd_proc_data+0xb9>
        // E0 escape character
        shift |= E0ESC;
        return 0;
    } else if (data & 0x80) {
  100799:	84 c0                	test   %al,%al
  10079b:	0f 88 88 00 00 00    	js     100829 <kbd_proc_data+0xc7>
        // Key released
        data = (shift & E0ESC ? data : data & 0x7F);
        shift &= ~(shiftcode[data] | E0ESC);
        return 0;
    } else if (shift & E0ESC) {
  1007a1:	8b 93 44 86 02 00    	mov    0x28644(%ebx),%edx
  1007a7:	f6 c2 40             	test   $0x40,%dl
  1007aa:	74 0c                	je     1007b8 <kbd_proc_data+0x56>
        // Last character was an E0 escape; or with 0x80
        data |= 0x80;
  1007ac:	83 c8 80             	or     $0xffffff80,%eax
        shift &= ~E0ESC;
  1007af:	83 e2 bf             	and    $0xffffffbf,%edx
  1007b2:	89 93 44 86 02 00    	mov    %edx,0x28644(%ebx)
    }

    shift |= shiftcode[data];
  1007b8:	0f b6 c0             	movzbl %al,%eax
  1007bb:	0f b6 94 03 40 b1 ff 	movzbl -0x4ec0(%ebx,%eax,1),%edx
  1007c2:	ff 
  1007c3:	0b 93 44 86 02 00    	or     0x28644(%ebx),%edx
  1007c9:	89 93 44 86 02 00    	mov    %edx,0x28644(%ebx)
    shift ^= togglecode[data];
  1007cf:	0f b6 8c 03 40 b0 ff 	movzbl -0x4fc0(%ebx,%eax,1),%ecx
  1007d6:	ff 
  1007d7:	31 ca                	xor    %ecx,%edx
  1007d9:	89 93 44 86 02 00    	mov    %edx,0x28644(%ebx)

    c = charcode[shift & (CTL | SHIFT)][data];
  1007df:	89 d1                	mov    %edx,%ecx
  1007e1:	83 e1 03             	and    $0x3,%ecx
  1007e4:	8b 8c 8b a0 ff ff ff 	mov    -0x60(%ebx,%ecx,4),%ecx
  1007eb:	0f b6 04 01          	movzbl (%ecx,%eax,1),%eax
  1007ef:	0f b6 f0             	movzbl %al,%esi
    if (shift & CAPSLOCK) {
  1007f2:	f6 c2 08             	test   $0x8,%dl
  1007f5:	74 0d                	je     100804 <kbd_proc_data+0xa2>
        if ('a' <= c && c <= 'z')
  1007f7:	89 f0                	mov    %esi,%eax
  1007f9:	8d 4e 9f             	lea    -0x61(%esi),%ecx
  1007fc:	83 f9 19             	cmp    $0x19,%ecx
  1007ff:	77 58                	ja     100859 <kbd_proc_data+0xf7>
            c += 'A' - 'a';
  100801:	83 ee 20             	sub    $0x20,%esi
        else if ('A' <= c && c <= 'Z')
            c += 'a' - 'A';
    }
    // Process special keys
    // Ctrl-Alt-Del: reboot
    if (!(~shift & (CTL | ALT)) && c == KEY_DEL) {
  100804:	f7 d2                	not    %edx
  100806:	f6 c2 06             	test   $0x6,%dl
  100809:	75 08                	jne    100813 <kbd_proc_data+0xb1>
  10080b:	81 fe e9 00 00 00    	cmp    $0xe9,%esi
  100811:	74 53                	je     100866 <kbd_proc_data+0x104>
        dprintf("Rebooting!\n");
        outb(0x92, 0x3);  // courtesy of Chris Frost
    }

    return c;
}
  100813:	89 f0                	mov    %esi,%eax
  100815:	83 c4 04             	add    $0x4,%esp
  100818:	5b                   	pop    %ebx
  100819:	5e                   	pop    %esi
  10081a:	c3                   	ret    
        shift |= E0ESC;
  10081b:	83 8b 44 86 02 00 40 	orl    $0x40,0x28644(%ebx)
        return 0;
  100822:	be 00 00 00 00       	mov    $0x0,%esi
  100827:	eb ea                	jmp    100813 <kbd_proc_data+0xb1>
        data = (shift & E0ESC ? data : data & 0x7F);
  100829:	8b 93 44 86 02 00    	mov    0x28644(%ebx),%edx
  10082f:	f6 c2 40             	test   $0x40,%dl
  100832:	75 03                	jne    100837 <kbd_proc_data+0xd5>
  100834:	83 e0 7f             	and    $0x7f,%eax
        shift &= ~(shiftcode[data] | E0ESC);
  100837:	0f b6 c0             	movzbl %al,%eax
  10083a:	0f b6 84 03 40 b1 ff 	movzbl -0x4ec0(%ebx,%eax,1),%eax
  100841:	ff 
  100842:	83 c8 40             	or     $0x40,%eax
  100845:	0f b6 c0             	movzbl %al,%eax
  100848:	f7 d0                	not    %eax
  10084a:	21 c2                	and    %eax,%edx
  10084c:	89 93 44 86 02 00    	mov    %edx,0x28644(%ebx)
        return 0;
  100852:	be 00 00 00 00       	mov    $0x0,%esi
  100857:	eb ba                	jmp    100813 <kbd_proc_data+0xb1>
        else if ('A' <= c && c <= 'Z')
  100859:	83 e8 41             	sub    $0x41,%eax
  10085c:	83 f8 19             	cmp    $0x19,%eax
  10085f:	77 a3                	ja     100804 <kbd_proc_data+0xa2>
            c += 'a' - 'A';
  100861:	83 c6 20             	add    $0x20,%esi
  100864:	eb 9e                	jmp    100804 <kbd_proc_data+0xa2>
        dprintf("Rebooting!\n");
  100866:	83 ec 0c             	sub    $0xc,%esp
  100869:	8d 83 21 b0 ff ff    	lea    -0x4fdf(%ebx),%eax
  10086f:	50                   	push   %eax
  100870:	e8 8c 22 00 00       	call   102b01 <dprintf>
        outb(0x92, 0x3);  // courtesy of Chris Frost
  100875:	83 c4 08             	add    $0x8,%esp
  100878:	6a 03                	push   $0x3
  10087a:	68 92 00 00 00       	push   $0x92
  10087f:	e8 ec 2c 00 00       	call   103570 <outb>
  100884:	83 c4 10             	add    $0x10,%esp
  100887:	eb 8a                	jmp    100813 <kbd_proc_data+0xb1>
        return -1;
  100889:	be ff ff ff ff       	mov    $0xffffffff,%esi
  10088e:	eb 83                	jmp    100813 <kbd_proc_data+0xb1>

00100890 <keyboard_intr>:

void keyboard_intr(void)
{
  100890:	53                   	push   %ebx
  100891:	83 ec 14             	sub    $0x14,%esp
  100894:	e8 73 fa ff ff       	call   10030c <__x86.get_pc_thunk.bx>
  100899:	81 c3 67 a7 00 00    	add    $0xa767,%ebx
    cons_intr(kbd_proc_data);
  10089f:	8d 83 62 57 ff ff    	lea    -0xa89e(%ebx),%eax
  1008a5:	50                   	push   %eax
  1008a6:	e8 96 fa ff ff       	call   100341 <cons_intr>
}
  1008ab:	83 c4 18             	add    $0x18,%esp
  1008ae:	5b                   	pop    %ebx
  1008af:	c3                   	ret    

001008b0 <devinit>:
#include "tsc.h"

void intr_init(void);

void devinit(uintptr_t mbi_addr)
{
  1008b0:	57                   	push   %edi
  1008b1:	56                   	push   %esi
  1008b2:	53                   	push   %ebx
  1008b3:	e8 54 fa ff ff       	call   10030c <__x86.get_pc_thunk.bx>
  1008b8:	81 c3 48 a7 00 00    	add    $0xa748,%ebx
  1008be:	8b 74 24 10          	mov    0x10(%esp),%esi
    seg_init();
  1008c2:	e8 99 27 00 00       	call   103060 <seg_init>

    enable_sse();
  1008c7:	e8 fc 2b 00 00       	call   1034c8 <enable_sse>

    cons_init();
  1008cc:	e8 3f fa ff ff       	call   100310 <cons_init>
    KERN_DEBUG("cons initialized.\n");
  1008d1:	83 ec 04             	sub    $0x4,%esp
  1008d4:	8d 83 40 b2 ff ff    	lea    -0x4dc0(%ebx),%eax
  1008da:	50                   	push   %eax
  1008db:	6a 14                	push   $0x14
  1008dd:	8d bb 53 b2 ff ff    	lea    -0x4dad(%ebx),%edi
  1008e3:	57                   	push   %edi
  1008e4:	e8 4c 20 00 00       	call   102935 <debug_normal>
    KERN_DEBUG("devinit mbi_addr: %d\n", mbi_addr);
  1008e9:	56                   	push   %esi
  1008ea:	8d 83 66 b2 ff ff    	lea    -0x4d9a(%ebx),%eax
  1008f0:	50                   	push   %eax
  1008f1:	6a 15                	push   $0x15
  1008f3:	57                   	push   %edi
  1008f4:	e8 3c 20 00 00       	call   102935 <debug_normal>

    tsc_init();
  1008f9:	83 c4 20             	add    $0x20,%esp
  1008fc:	e8 80 18 00 00       	call   102181 <tsc_init>
    intr_init();
  100901:	e8 86 13 00 00       	call   101c8c <intr_init>

    /* enable interrupts */
    intr_enable(IRQ_TIMER);
  100906:	83 ec 0c             	sub    $0xc,%esp
  100909:	6a 00                	push   $0x0
  10090b:	e8 ac 13 00 00       	call   101cbc <intr_enable>
    intr_enable(IRQ_KBD);
  100910:	c7 04 24 01 00 00 00 	movl   $0x1,(%esp)
  100917:	e8 a0 13 00 00       	call   101cbc <intr_enable>
    intr_enable(IRQ_SERIAL13);
  10091c:	c7 04 24 04 00 00 00 	movl   $0x4,(%esp)
  100923:	e8 94 13 00 00       	call   101cbc <intr_enable>

    pmmap_init(mbi_addr);
  100928:	89 34 24             	mov    %esi,(%esp)
  10092b:	e8 68 02 00 00       	call   100b98 <pmmap_init>
}
  100930:	83 c4 10             	add    $0x10,%esp
  100933:	5b                   	pop    %ebx
  100934:	5e                   	pop    %esi
  100935:	5f                   	pop    %edi
  100936:	c3                   	ret    

00100937 <pmmap_dump>:
    if (last_slot[PMMAP_USABLE] != NULL)
        max_usable_memory = last_slot[PMMAP_USABLE]->end;
}

static void pmmap_dump(void)
{
  100937:	56                   	push   %esi
  100938:	53                   	push   %ebx
  100939:	83 ec 04             	sub    $0x4,%esp
  10093c:	e8 cb f9 ff ff       	call   10030c <__x86.get_pc_thunk.bx>
  100941:	81 c3 bf a6 00 00    	add    $0xa6bf,%ebx
    struct pmmap *slot;
    SLIST_FOREACH(slot, &pmmap_list, next) {
  100947:	8b b3 7c 86 02 00    	mov    0x2867c(%ebx),%esi
  10094d:	eb 35                	jmp    100984 <pmmap_dump+0x4d>
        KERN_INFO("BIOS-e820: 0x%08x - 0x%08x (%s)\n",
  10094f:	8d 8b 7c b2 ff ff    	lea    -0x4d84(%ebx),%ecx
  100955:	eb 4e                	jmp    1009a5 <pmmap_dump+0x6e>
  100957:	8d 8b 85 b2 ff ff    	lea    -0x4d7b(%ebx),%ecx
  10095d:	eb 46                	jmp    1009a5 <pmmap_dump+0x6e>
  10095f:	8d 8b 8c b2 ff ff    	lea    -0x4d74(%ebx),%ecx
  100965:	eb 3e                	jmp    1009a5 <pmmap_dump+0x6e>
  100967:	8d 8b 9e b2 ff ff    	lea    -0x4d62(%ebx),%ecx
  10096d:	eb 36                	jmp    1009a5 <pmmap_dump+0x6e>
  10096f:	51                   	push   %ecx
  100970:	50                   	push   %eax
  100971:	52                   	push   %edx
  100972:	8d 83 04 b3 ff ff    	lea    -0x4cfc(%ebx),%eax
  100978:	50                   	push   %eax
  100979:	e8 92 1f 00 00       	call   102910 <debug_info>
    SLIST_FOREACH(slot, &pmmap_list, next) {
  10097e:	8b 76 0c             	mov    0xc(%esi),%esi
  100981:	83 c4 10             	add    $0x10,%esp
  100984:	85 f6                	test   %esi,%esi
  100986:	74 30                	je     1009b8 <pmmap_dump+0x81>
        KERN_INFO("BIOS-e820: 0x%08x - 0x%08x (%s)\n",
  100988:	8b 46 08             	mov    0x8(%esi),%eax
  10098b:	83 f8 01             	cmp    $0x1,%eax
  10098e:	74 c7                	je     100957 <pmmap_dump+0x20>
  100990:	83 f8 03             	cmp    $0x3,%eax
  100993:	74 ca                	je     10095f <pmmap_dump+0x28>
  100995:	83 f8 04             	cmp    $0x4,%eax
  100998:	74 cd                	je     100967 <pmmap_dump+0x30>
  10099a:	83 f8 02             	cmp    $0x2,%eax
  10099d:	74 b0                	je     10094f <pmmap_dump+0x18>
  10099f:	8d 8b 96 b2 ff ff    	lea    -0x4d6a(%ebx),%ecx
  1009a5:	8b 16                	mov    (%esi),%edx
  1009a7:	8b 46 04             	mov    0x4(%esi),%eax
  1009aa:	39 c2                	cmp    %eax,%edx
  1009ac:	74 c1                	je     10096f <pmmap_dump+0x38>
  1009ae:	83 f8 ff             	cmp    $0xffffffff,%eax
  1009b1:	74 bc                	je     10096f <pmmap_dump+0x38>
  1009b3:	83 e8 01             	sub    $0x1,%eax
  1009b6:	eb b7                	jmp    10096f <pmmap_dump+0x38>
                  (slot->type == MEM_RAM) ? "usable" :
                  (slot->type == MEM_RESERVED) ? "reserved" :
                  (slot->type == MEM_ACPI) ? "ACPI data" :
                  (slot->type == MEM_NVS) ? "ACPI NVS" : "unknown");
    }
}
  1009b8:	83 c4 04             	add    $0x4,%esp
  1009bb:	5b                   	pop    %ebx
  1009bc:	5e                   	pop    %esi
  1009bd:	c3                   	ret    

001009be <pmmap_merge>:
{
  1009be:	56                   	push   %esi
  1009bf:	53                   	push   %ebx
  1009c0:	83 ec 14             	sub    $0x14,%esp
  1009c3:	e8 44 f9 ff ff       	call   10030c <__x86.get_pc_thunk.bx>
  1009c8:	81 c3 38 a6 00 00    	add    $0xa638,%ebx
    struct pmmap *last_slot[4] = { NULL, NULL, NULL, NULL };
  1009ce:	c7 04 24 00 00 00 00 	movl   $0x0,(%esp)
  1009d5:	c7 44 24 04 00 00 00 	movl   $0x0,0x4(%esp)
  1009dc:	00 
  1009dd:	c7 44 24 08 00 00 00 	movl   $0x0,0x8(%esp)
  1009e4:	00 
  1009e5:	c7 44 24 0c 00 00 00 	movl   $0x0,0xc(%esp)
  1009ec:	00 
    SLIST_FOREACH(slot, &pmmap_list, next) {
  1009ed:	8b b3 7c 86 02 00    	mov    0x2867c(%ebx),%esi
  1009f3:	eb 03                	jmp    1009f8 <pmmap_merge+0x3a>
  1009f5:	8b 76 0c             	mov    0xc(%esi),%esi
  1009f8:	85 f6                	test   %esi,%esi
  1009fa:	74 39                	je     100a35 <pmmap_merge+0x77>
        if ((next_slot = SLIST_NEXT(slot, next)) == NULL)
  1009fc:	8b 46 0c             	mov    0xc(%esi),%eax
  1009ff:	85 c0                	test   %eax,%eax
  100a01:	74 32                	je     100a35 <pmmap_merge+0x77>
        if (slot->start <= next_slot->start &&
  100a03:	8b 10                	mov    (%eax),%edx
  100a05:	39 16                	cmp    %edx,(%esi)
  100a07:	77 ec                	ja     1009f5 <pmmap_merge+0x37>
            slot->end >= next_slot->start &&
  100a09:	8b 4e 04             	mov    0x4(%esi),%ecx
        if (slot->start <= next_slot->start &&
  100a0c:	39 ca                	cmp    %ecx,%edx
  100a0e:	77 e5                	ja     1009f5 <pmmap_merge+0x37>
            slot->end >= next_slot->start &&
  100a10:	8b 50 08             	mov    0x8(%eax),%edx
  100a13:	39 56 08             	cmp    %edx,0x8(%esi)
  100a16:	75 dd                	jne    1009f5 <pmmap_merge+0x37>
            slot->end = max(slot->end, next_slot->end);
  100a18:	83 ec 08             	sub    $0x8,%esp
  100a1b:	ff 70 04             	push   0x4(%eax)
  100a1e:	51                   	push   %ecx
  100a1f:	e8 33 2a 00 00       	call   103457 <max>
  100a24:	89 46 04             	mov    %eax,0x4(%esi)
            SLIST_REMOVE_AFTER(slot, next);
  100a27:	8b 46 0c             	mov    0xc(%esi),%eax
  100a2a:	8b 40 0c             	mov    0xc(%eax),%eax
  100a2d:	89 46 0c             	mov    %eax,0xc(%esi)
  100a30:	83 c4 10             	add    $0x10,%esp
  100a33:	eb c0                	jmp    1009f5 <pmmap_merge+0x37>
    SLIST_FOREACH(slot, &pmmap_list, next) {
  100a35:	8b b3 7c 86 02 00    	mov    0x2867c(%ebx),%esi
  100a3b:	eb 1b                	jmp    100a58 <pmmap_merge+0x9a>
        sublist_nr = PMMAP_SUBLIST_NR(slot->type);
  100a3d:	b8 00 00 00 00       	mov    $0x0,%eax
        if (last_slot[sublist_nr] != NULL)
  100a42:	8b 14 84             	mov    (%esp,%eax,4),%edx
  100a45:	85 d2                	test   %edx,%edx
  100a47:	74 65                	je     100aae <pmmap_merge+0xf0>
            SLIST_INSERT_AFTER(last_slot[sublist_nr], slot, type_next);
  100a49:	8b 4a 10             	mov    0x10(%edx),%ecx
  100a4c:	89 4e 10             	mov    %ecx,0x10(%esi)
  100a4f:	89 72 10             	mov    %esi,0x10(%edx)
        last_slot[sublist_nr] = slot;
  100a52:	89 34 84             	mov    %esi,(%esp,%eax,4)
    SLIST_FOREACH(slot, &pmmap_list, next) {
  100a55:	8b 76 0c             	mov    0xc(%esi),%esi
  100a58:	85 f6                	test   %esi,%esi
  100a5a:	74 63                	je     100abf <pmmap_merge+0x101>
        sublist_nr = PMMAP_SUBLIST_NR(slot->type);
  100a5c:	8b 46 08             	mov    0x8(%esi),%eax
  100a5f:	83 f8 01             	cmp    $0x1,%eax
  100a62:	74 d9                	je     100a3d <pmmap_merge+0x7f>
  100a64:	83 f8 03             	cmp    $0x3,%eax
  100a67:	74 30                	je     100a99 <pmmap_merge+0xdb>
  100a69:	83 f8 04             	cmp    $0x4,%eax
  100a6c:	74 32                	je     100aa0 <pmmap_merge+0xe2>
  100a6e:	83 f8 02             	cmp    $0x2,%eax
  100a71:	74 34                	je     100aa7 <pmmap_merge+0xe9>
        KERN_ASSERT(sublist_nr != -1);
  100a73:	8d 83 a7 b2 ff ff    	lea    -0x4d59(%ebx),%eax
  100a79:	50                   	push   %eax
  100a7a:	8d 83 b8 b2 ff ff    	lea    -0x4d48(%ebx),%eax
  100a80:	50                   	push   %eax
  100a81:	6a 6b                	push   $0x6b
  100a83:	8d 83 d5 b2 ff ff    	lea    -0x4d2b(%ebx),%eax
  100a89:	50                   	push   %eax
  100a8a:	e8 df 1e 00 00       	call   10296e <debug_panic>
  100a8f:	83 c4 10             	add    $0x10,%esp
        sublist_nr = PMMAP_SUBLIST_NR(slot->type);
  100a92:	b8 ff ff ff ff       	mov    $0xffffffff,%eax
  100a97:	eb a9                	jmp    100a42 <pmmap_merge+0x84>
  100a99:	b8 02 00 00 00       	mov    $0x2,%eax
  100a9e:	eb a2                	jmp    100a42 <pmmap_merge+0x84>
  100aa0:	b8 03 00 00 00       	mov    $0x3,%eax
  100aa5:	eb 9b                	jmp    100a42 <pmmap_merge+0x84>
  100aa7:	b8 01 00 00 00       	mov    $0x1,%eax
  100aac:	eb 94                	jmp    100a42 <pmmap_merge+0x84>
            SLIST_INSERT_HEAD(&pmmap_sublist[sublist_nr], slot, type_next);
  100aae:	8d 93 6c 86 02 00    	lea    0x2866c(%ebx),%edx
  100ab4:	8b 0c 82             	mov    (%edx,%eax,4),%ecx
  100ab7:	89 4e 10             	mov    %ecx,0x10(%esi)
  100aba:	89 34 82             	mov    %esi,(%edx,%eax,4)
  100abd:	eb 93                	jmp    100a52 <pmmap_merge+0x94>
    if (last_slot[PMMAP_USABLE] != NULL)
  100abf:	8b 04 24             	mov    (%esp),%eax
  100ac2:	85 c0                	test   %eax,%eax
  100ac4:	74 09                	je     100acf <pmmap_merge+0x111>
        max_usable_memory = last_slot[PMMAP_USABLE]->end;
  100ac6:	8b 40 04             	mov    0x4(%eax),%eax
  100ac9:	89 83 68 86 02 00    	mov    %eax,0x28668(%ebx)
}
  100acf:	83 c4 14             	add    $0x14,%esp
  100ad2:	5b                   	pop    %ebx
  100ad3:	5e                   	pop    %esi
  100ad4:	c3                   	ret    

00100ad5 <pmmap_alloc_slot>:
{
  100ad5:	e8 f2 02 00 00       	call   100dcc <__x86.get_pc_thunk.dx>
  100ada:	81 c2 26 a5 00 00    	add    $0xa526,%edx
    if (unlikely(pmmap_slots_next_free == 128))
  100ae0:	8b 82 80 86 02 00    	mov    0x28680(%edx),%eax
  100ae6:	3d 80 00 00 00       	cmp    $0x80,%eax
  100aeb:	74 1b                	je     100b08 <pmmap_alloc_slot+0x33>
    return &pmmap_slots[pmmap_slots_next_free++];
  100aed:	8d 48 01             	lea    0x1(%eax),%ecx
  100af0:	89 8a 80 86 02 00    	mov    %ecx,0x28680(%edx)
  100af6:	8d 0c 80             	lea    (%eax,%eax,4),%ecx
  100af9:	8d 04 8d 00 00 00 00 	lea    0x0(,%ecx,4),%eax
  100b00:	8d 84 02 a0 86 02 00 	lea    0x286a0(%edx,%eax,1),%eax
  100b07:	c3                   	ret    
        return NULL;
  100b08:	b8 00 00 00 00       	mov    $0x0,%eax
}
  100b0d:	c3                   	ret    

00100b0e <pmmap_insert>:
{
  100b0e:	55                   	push   %ebp
  100b0f:	57                   	push   %edi
  100b10:	56                   	push   %esi
  100b11:	53                   	push   %ebx
  100b12:	83 ec 1c             	sub    $0x1c,%esp
  100b15:	e8 f2 f7 ff ff       	call   10030c <__x86.get_pc_thunk.bx>
  100b1a:	81 c3 e6 a4 00 00    	add    $0xa4e6,%ebx
  100b20:	89 c6                	mov    %eax,%esi
  100b22:	89 d5                	mov    %edx,%ebp
  100b24:	89 4c 24 0c          	mov    %ecx,0xc(%esp)
    if ((free_slot = pmmap_alloc_slot()) == NULL)
  100b28:	e8 a8 ff ff ff       	call   100ad5 <pmmap_alloc_slot>
  100b2d:	89 c7                	mov    %eax,%edi
  100b2f:	85 c0                	test   %eax,%eax
  100b31:	74 1b                	je     100b4e <pmmap_insert+0x40>
    free_slot->start = start;
  100b33:	89 37                	mov    %esi,(%edi)
    free_slot->end = end;
  100b35:	89 6f 04             	mov    %ebp,0x4(%edi)
    free_slot->type = type;
  100b38:	8b 44 24 0c          	mov    0xc(%esp),%eax
  100b3c:	89 47 08             	mov    %eax,0x8(%edi)
    SLIST_FOREACH(slot, &pmmap_list, next) {
  100b3f:	8b 8b 7c 86 02 00    	mov    0x2867c(%ebx),%ecx
  100b45:	89 c8                	mov    %ecx,%eax
    last_slot = NULL;
  100b47:	ba 00 00 00 00       	mov    $0x0,%edx
    SLIST_FOREACH(slot, &pmmap_list, next) {
  100b4c:	eb 22                	jmp    100b70 <pmmap_insert+0x62>
        KERN_PANIC("More than 128 E820 entries.\n");
  100b4e:	83 ec 04             	sub    $0x4,%esp
  100b51:	8d 83 e6 b2 ff ff    	lea    -0x4d1a(%ebx),%eax
  100b57:	50                   	push   %eax
  100b58:	6a 3c                	push   $0x3c
  100b5a:	8d 83 d5 b2 ff ff    	lea    -0x4d2b(%ebx),%eax
  100b60:	50                   	push   %eax
  100b61:	e8 08 1e 00 00       	call   10296e <debug_panic>
  100b66:	83 c4 10             	add    $0x10,%esp
  100b69:	eb c8                	jmp    100b33 <pmmap_insert+0x25>
        last_slot = slot;
  100b6b:	89 c2                	mov    %eax,%edx
    SLIST_FOREACH(slot, &pmmap_list, next) {
  100b6d:	8b 40 0c             	mov    0xc(%eax),%eax
  100b70:	85 c0                	test   %eax,%eax
  100b72:	74 04                	je     100b78 <pmmap_insert+0x6a>
        if (start < slot->start)
  100b74:	39 30                	cmp    %esi,(%eax)
  100b76:	76 f3                	jbe    100b6b <pmmap_insert+0x5d>
    if (last_slot == NULL) {
  100b78:	85 d2                	test   %edx,%edx
  100b7a:	74 11                	je     100b8d <pmmap_insert+0x7f>
        SLIST_INSERT_AFTER(last_slot, free_slot, next);
  100b7c:	8b 42 0c             	mov    0xc(%edx),%eax
  100b7f:	89 47 0c             	mov    %eax,0xc(%edi)
  100b82:	89 7a 0c             	mov    %edi,0xc(%edx)
}
  100b85:	83 c4 1c             	add    $0x1c,%esp
  100b88:	5b                   	pop    %ebx
  100b89:	5e                   	pop    %esi
  100b8a:	5f                   	pop    %edi
  100b8b:	5d                   	pop    %ebp
  100b8c:	c3                   	ret    
        SLIST_INSERT_HEAD(&pmmap_list, free_slot, next);
  100b8d:	89 4f 0c             	mov    %ecx,0xc(%edi)
  100b90:	89 bb 7c 86 02 00    	mov    %edi,0x2867c(%ebx)
  100b96:	eb ed                	jmp    100b85 <pmmap_insert+0x77>

00100b98 <pmmap_init>:

void pmmap_init(uintptr_t mbi_addr)
{
  100b98:	55                   	push   %ebp
  100b99:	57                   	push   %edi
  100b9a:	56                   	push   %esi
  100b9b:	53                   	push   %ebx
  100b9c:	83 ec 18             	sub    $0x18,%esp
  100b9f:	e8 68 f7 ff ff       	call   10030c <__x86.get_pc_thunk.bx>
  100ba4:	81 c3 5c a4 00 00    	add    $0xa45c,%ebx
  100baa:	8b 74 24 2c          	mov    0x2c(%esp),%esi
    KERN_INFO("\n");
  100bae:	8d 83 87 b8 ff ff    	lea    -0x4779(%ebx),%eax
  100bb4:	50                   	push   %eax
  100bb5:	e8 56 1d 00 00       	call   102910 <debug_info>

    mboot_info_t *mbi = (mboot_info_t *) mbi_addr;
    mboot_mmap_t *p = (mboot_mmap_t *) mbi->mmap_addr;
  100bba:	8b 46 30             	mov    0x30(%esi),%eax

    SLIST_INIT(&pmmap_list);
  100bbd:	c7 83 7c 86 02 00 00 	movl   $0x0,0x2867c(%ebx)
  100bc4:	00 00 00 
    SLIST_INIT(&pmmap_sublist[PMMAP_USABLE]);
  100bc7:	c7 83 6c 86 02 00 00 	movl   $0x0,0x2866c(%ebx)
  100bce:	00 00 00 
    SLIST_INIT(&pmmap_sublist[PMMAP_RESV]);
  100bd1:	c7 83 70 86 02 00 00 	movl   $0x0,0x28670(%ebx)
  100bd8:	00 00 00 
    SLIST_INIT(&pmmap_sublist[PMMAP_ACPI]);
  100bdb:	c7 83 74 86 02 00 00 	movl   $0x0,0x28674(%ebx)
  100be2:	00 00 00 
    SLIST_INIT(&pmmap_sublist[PMMAP_NVS]);
  100be5:	c7 83 78 86 02 00 00 	movl   $0x0,0x28678(%ebx)
  100bec:	00 00 00 

    /*
     * Copy memory map information from multiboot information mbi to pmmap.
     */
    while ((uintptr_t) p - (uintptr_t) mbi->mmap_addr < mbi->mmap_length) {
  100bef:	83 c4 10             	add    $0x10,%esp
  100bf2:	eb 12                	jmp    100c06 <pmmap_init+0x6e>
            goto next;
        else
            start = p->base_addr_low;

        if (p->length_high != 0 || p->length_low >= 0xffffffff - start)
            end = 0xffffffff;
  100bf4:	ba ff ff ff ff       	mov    $0xffffffff,%edx
        else
            end = start + p->length_low;

        type = p->type;
  100bf9:	8b 48 14             	mov    0x14(%eax),%ecx

        pmmap_insert(start, end, type);
  100bfc:	89 e8                	mov    %ebp,%eax
  100bfe:	e8 0b ff ff ff       	call   100b0e <pmmap_insert>

      next:
        p = (mboot_mmap_t *) (((uint32_t) p) + sizeof(mboot_mmap_t) /* p->size */);
  100c03:	8d 47 18             	lea    0x18(%edi),%eax
    while ((uintptr_t) p - (uintptr_t) mbi->mmap_addr < mbi->mmap_length) {
  100c06:	89 c7                	mov    %eax,%edi
  100c08:	89 c2                	mov    %eax,%edx
  100c0a:	2b 56 30             	sub    0x30(%esi),%edx
  100c0d:	3b 56 2c             	cmp    0x2c(%esi),%edx
  100c10:	73 25                	jae    100c37 <pmmap_init+0x9f>
        if (p->base_addr_high != 0)  /* ignore address above 4G */
  100c12:	83 78 08 00          	cmpl   $0x0,0x8(%eax)
  100c16:	75 eb                	jne    100c03 <pmmap_init+0x6b>
            start = p->base_addr_low;
  100c18:	8b 68 04             	mov    0x4(%eax),%ebp
        if (p->length_high != 0 || p->length_low >= 0xffffffff - start)
  100c1b:	83 78 10 00          	cmpl   $0x0,0x10(%eax)
  100c1f:	75 d3                	jne    100bf4 <pmmap_init+0x5c>
  100c21:	8b 50 0c             	mov    0xc(%eax),%edx
  100c24:	89 e9                	mov    %ebp,%ecx
  100c26:	f7 d1                	not    %ecx
  100c28:	39 ca                	cmp    %ecx,%edx
  100c2a:	73 04                	jae    100c30 <pmmap_init+0x98>
            end = start + p->length_low;
  100c2c:	01 ea                	add    %ebp,%edx
  100c2e:	eb c9                	jmp    100bf9 <pmmap_init+0x61>
            end = 0xffffffff;
  100c30:	ba ff ff ff ff       	mov    $0xffffffff,%edx
  100c35:	eb c2                	jmp    100bf9 <pmmap_init+0x61>
    }

    /* merge overlapped memory regions */
    pmmap_merge();
  100c37:	e8 82 fd ff ff       	call   1009be <pmmap_merge>
    pmmap_dump();
  100c3c:	e8 f6 fc ff ff       	call   100937 <pmmap_dump>

    /* count the number of pmmap entries */
    struct pmmap *slot;
    SLIST_FOREACH(slot, &pmmap_list, next) {
  100c41:	8b 83 7c 86 02 00    	mov    0x2867c(%ebx),%eax
  100c47:	eb 0a                	jmp    100c53 <pmmap_init+0xbb>
        pmmap_nentries++;
  100c49:	83 83 60 86 02 00 01 	addl   $0x1,0x28660(%ebx)
    SLIST_FOREACH(slot, &pmmap_list, next) {
  100c50:	8b 40 0c             	mov    0xc(%eax),%eax
  100c53:	85 c0                	test   %eax,%eax
  100c55:	75 f2                	jne    100c49 <pmmap_init+0xb1>
    }

    /* Calculate the maximum page number */
    mem_npages = rounddown(max_usable_memory, PAGESIZE) / PAGESIZE;
  100c57:	83 ec 08             	sub    $0x8,%esp
  100c5a:	68 00 10 00 00       	push   $0x1000
  100c5f:	ff b3 68 86 02 00    	push   0x28668(%ebx)
  100c65:	e8 09 28 00 00       	call   103473 <rounddown>
  100c6a:	c1 e8 0c             	shr    $0xc,%eax
  100c6d:	89 83 64 86 02 00    	mov    %eax,0x28664(%ebx)
}
  100c73:	83 c4 1c             	add    $0x1c,%esp
  100c76:	5b                   	pop    %ebx
  100c77:	5e                   	pop    %esi
  100c78:	5f                   	pop    %edi
  100c79:	5d                   	pop    %ebp
  100c7a:	c3                   	ret    

00100c7b <get_size>:

int get_size(void)
{
  100c7b:	e8 48 01 00 00       	call   100dc8 <__x86.get_pc_thunk.ax>
  100c80:	05 80 a3 00 00       	add    $0xa380,%eax
    return pmmap_nentries;
  100c85:	8b 80 60 86 02 00    	mov    0x28660(%eax),%eax
}
  100c8b:	c3                   	ret    

00100c8c <get_mms>:

uint32_t get_mms(int idx)
{
  100c8c:	53                   	push   %ebx
  100c8d:	e8 7a f6 ff ff       	call   10030c <__x86.get_pc_thunk.bx>
  100c92:	81 c3 6e a3 00 00    	add    $0xa36e,%ebx
  100c98:	8b 4c 24 08          	mov    0x8(%esp),%ecx
    int i = 0;
    struct pmmap *slot = NULL;

    SLIST_FOREACH(slot, &pmmap_list, next) {
  100c9c:	8b 83 7c 86 02 00    	mov    0x2867c(%ebx),%eax
    int i = 0;
  100ca2:	ba 00 00 00 00       	mov    $0x0,%edx
    SLIST_FOREACH(slot, &pmmap_list, next) {
  100ca7:	eb 06                	jmp    100caf <get_mms+0x23>
        if (i == idx)
            break;
        i++;
  100ca9:	83 c2 01             	add    $0x1,%edx
    SLIST_FOREACH(slot, &pmmap_list, next) {
  100cac:	8b 40 0c             	mov    0xc(%eax),%eax
  100caf:	85 c0                	test   %eax,%eax
  100cb1:	74 04                	je     100cb7 <get_mms+0x2b>
        if (i == idx)
  100cb3:	39 ca                	cmp    %ecx,%edx
  100cb5:	75 f2                	jne    100ca9 <get_mms+0x1d>
    }

    if (slot == NULL || i == pmmap_nentries)
  100cb7:	85 c0                	test   %eax,%eax
  100cb9:	74 0c                	je     100cc7 <get_mms+0x3b>
  100cbb:	39 93 60 86 02 00    	cmp    %edx,0x28660(%ebx)
  100cc1:	74 0b                	je     100cce <get_mms+0x42>
        return 0;

    return slot->start;
  100cc3:	8b 00                	mov    (%eax),%eax
}
  100cc5:	5b                   	pop    %ebx
  100cc6:	c3                   	ret    
        return 0;
  100cc7:	b8 00 00 00 00       	mov    $0x0,%eax
  100ccc:	eb f7                	jmp    100cc5 <get_mms+0x39>
  100cce:	b8 00 00 00 00       	mov    $0x0,%eax
  100cd3:	eb f0                	jmp    100cc5 <get_mms+0x39>

00100cd5 <get_mml>:

uint32_t get_mml(int idx)
{
  100cd5:	53                   	push   %ebx
  100cd6:	e8 31 f6 ff ff       	call   10030c <__x86.get_pc_thunk.bx>
  100cdb:	81 c3 25 a3 00 00    	add    $0xa325,%ebx
  100ce1:	8b 4c 24 08          	mov    0x8(%esp),%ecx
    int i = 0;
    struct pmmap *slot = NULL;

    SLIST_FOREACH(slot, &pmmap_list, next) {
  100ce5:	8b 93 7c 86 02 00    	mov    0x2867c(%ebx),%edx
    int i = 0;
  100ceb:	b8 00 00 00 00       	mov    $0x0,%eax
    SLIST_FOREACH(slot, &pmmap_list, next) {
  100cf0:	eb 06                	jmp    100cf8 <get_mml+0x23>
        if (i == idx)
            break;
        i++;
  100cf2:	83 c0 01             	add    $0x1,%eax
    SLIST_FOREACH(slot, &pmmap_list, next) {
  100cf5:	8b 52 0c             	mov    0xc(%edx),%edx
  100cf8:	85 d2                	test   %edx,%edx
  100cfa:	74 04                	je     100d00 <get_mml+0x2b>
        if (i == idx)
  100cfc:	39 c8                	cmp    %ecx,%eax
  100cfe:	75 f2                	jne    100cf2 <get_mml+0x1d>
    }

    if (slot == NULL || i == pmmap_nentries)
  100d00:	85 d2                	test   %edx,%edx
  100d02:	74 0f                	je     100d13 <get_mml+0x3e>
  100d04:	39 83 60 86 02 00    	cmp    %eax,0x28660(%ebx)
  100d0a:	74 0e                	je     100d1a <get_mml+0x45>
        return 0;

    return slot->end - slot->start;
  100d0c:	8b 42 04             	mov    0x4(%edx),%eax
  100d0f:	2b 02                	sub    (%edx),%eax
}
  100d11:	5b                   	pop    %ebx
  100d12:	c3                   	ret    
        return 0;
  100d13:	b8 00 00 00 00       	mov    $0x0,%eax
  100d18:	eb f7                	jmp    100d11 <get_mml+0x3c>
  100d1a:	b8 00 00 00 00       	mov    $0x0,%eax
  100d1f:	eb f0                	jmp    100d11 <get_mml+0x3c>

00100d21 <is_usable>:

int is_usable(int idx)
{
  100d21:	53                   	push   %ebx
  100d22:	e8 e5 f5 ff ff       	call   10030c <__x86.get_pc_thunk.bx>
  100d27:	81 c3 d9 a2 00 00    	add    $0xa2d9,%ebx
  100d2d:	8b 4c 24 08          	mov    0x8(%esp),%ecx
    int i = 0;
    struct pmmap *slot = NULL;

    SLIST_FOREACH(slot, &pmmap_list, next) {
  100d31:	8b 83 7c 86 02 00    	mov    0x2867c(%ebx),%eax
    int i = 0;
  100d37:	ba 00 00 00 00       	mov    $0x0,%edx
    SLIST_FOREACH(slot, &pmmap_list, next) {
  100d3c:	eb 06                	jmp    100d44 <is_usable+0x23>
        if (i == idx)
            break;
        i++;
  100d3e:	83 c2 01             	add    $0x1,%edx
    SLIST_FOREACH(slot, &pmmap_list, next) {
  100d41:	8b 40 0c             	mov    0xc(%eax),%eax
  100d44:	85 c0                	test   %eax,%eax
  100d46:	74 04                	je     100d4c <is_usable+0x2b>
        if (i == idx)
  100d48:	39 ca                	cmp    %ecx,%edx
  100d4a:	75 f2                	jne    100d3e <is_usable+0x1d>
    }

    if (slot == NULL || i == pmmap_nentries)
  100d4c:	85 c0                	test   %eax,%eax
  100d4e:	74 14                	je     100d64 <is_usable+0x43>
  100d50:	39 93 60 86 02 00    	cmp    %edx,0x28660(%ebx)
  100d56:	74 13                	je     100d6b <is_usable+0x4a>
        return 0;

    return slot->type == MEM_RAM;
  100d58:	83 78 08 01          	cmpl   $0x1,0x8(%eax)
  100d5c:	0f 94 c0             	sete   %al
  100d5f:	0f b6 c0             	movzbl %al,%eax
}
  100d62:	5b                   	pop    %ebx
  100d63:	c3                   	ret    
        return 0;
  100d64:	b8 00 00 00 00       	mov    $0x0,%eax
  100d69:	eb f7                	jmp    100d62 <is_usable+0x41>
  100d6b:	b8 00 00 00 00       	mov    $0x0,%eax
  100d70:	eb f0                	jmp    100d62 <is_usable+0x41>

00100d72 <set_cr3>:

void set_cr3(unsigned int **pdir)
{
  100d72:	53                   	push   %ebx
  100d73:	83 ec 14             	sub    $0x14,%esp
  100d76:	e8 91 f5 ff ff       	call   10030c <__x86.get_pc_thunk.bx>
  100d7b:	81 c3 85 a2 00 00    	add    $0xa285,%ebx
    lcr3((uint32_t) pdir);
  100d81:	ff 74 24 1c          	push   0x1c(%esp)
  100d85:	e8 ba 27 00 00       	call   103544 <lcr3>
}
  100d8a:	83 c4 18             	add    $0x18,%esp
  100d8d:	5b                   	pop    %ebx
  100d8e:	c3                   	ret    

00100d8f <enable_paging>:

void enable_paging(void)
{
  100d8f:	53                   	push   %ebx
  100d90:	83 ec 08             	sub    $0x8,%esp
  100d93:	e8 74 f5 ff ff       	call   10030c <__x86.get_pc_thunk.bx>
  100d98:	81 c3 68 a2 00 00    	add    $0xa268,%ebx
    /* enable global pages (Sec 4.10.2.4, Intel ASDM Vol3) */
    uint32_t cr4 = rcr4();
  100d9e:	e8 b1 27 00 00       	call   103554 <rcr4>
    cr4 |= CR4_PGE;
  100da3:	0c 80                	or     $0x80,%al
    lcr4(cr4);
  100da5:	83 ec 0c             	sub    $0xc,%esp
  100da8:	50                   	push   %eax
  100da9:	e8 9e 27 00 00       	call   10354c <lcr4>

    /* turn on paging */
    uint32_t cr0 = rcr0();
  100dae:	e8 89 27 00 00       	call   10353c <rcr0>
    cr0 |= CR0_PE | CR0_PG | CR0_AM | CR0_WP | CR0_NE | CR0_MP;
    cr0 &= ~(CR0_EM | CR0_TS);
  100db3:	83 e0 f3             	and    $0xfffffff3,%eax
  100db6:	0d 23 00 05 80       	or     $0x80050023,%eax
    lcr0(cr0);
  100dbb:	89 04 24             	mov    %eax,(%esp)
  100dbe:	e8 71 27 00 00       	call   103534 <lcr0>
}
  100dc3:	83 c4 18             	add    $0x18,%esp
  100dc6:	5b                   	pop    %ebx
  100dc7:	c3                   	ret    

00100dc8 <__x86.get_pc_thunk.ax>:
  100dc8:	8b 04 24             	mov    (%esp),%eax
  100dcb:	c3                   	ret    

00100dcc <__x86.get_pc_thunk.dx>:
  100dcc:	8b 14 24             	mov    (%esp),%edx
  100dcf:	c3                   	ret    

00100dd0 <intr_init_idt>:
gatedesc_t idt[256];
pseudodesc_t idt_pd =
    {.pd_lim = sizeof(idt) - 1, .pd_base = (uint32_t) idt};

static void intr_init_idt(void)
{
  100dd0:	55                   	push   %ebp
  100dd1:	57                   	push   %edi
  100dd2:	56                   	push   %esi
  100dd3:	53                   	push   %ebx
  100dd4:	e8 ef ff ff ff       	call   100dc8 <__x86.get_pc_thunk.ax>
  100dd9:	05 27 a2 00 00       	add    $0xa227,%eax

    /* check that T_IRQ0 is a multiple of 8 */
    KERN_ASSERT((T_IRQ0 & 7) == 0);

    /* install a default handler */
    for (i = 0; i < sizeof(idt) / sizeof(idt[0]); i++)
  100dde:	ba 00 00 00 00       	mov    $0x0,%edx
  100de3:	eb 78                	jmp    100e5d <intr_init_idt+0x8d>
        SETGATE(idt[i], 0, CPU_GDT_KCODE, &Xdefault, 0);
  100de5:	c7 c5 6e 25 10 00    	mov    $0x10256e,%ebp
  100deb:	66 89 ac d0 a0 90 02 	mov    %bp,0x290a0(%eax,%edx,8)
  100df2:	00 
  100df3:	8d b4 d0 a0 90 02 00 	lea    0x290a0(%eax,%edx,8),%esi
  100dfa:	66 c7 46 02 08 00    	movw   $0x8,0x2(%esi)
  100e00:	0f b6 8c d0 a4 90 02 	movzbl 0x290a4(%eax,%edx,8),%ecx
  100e07:	00 
  100e08:	83 e1 e0             	and    $0xffffffe0,%ecx
  100e0b:	88 8c d0 a4 90 02 00 	mov    %cl,0x290a4(%eax,%edx,8)
  100e12:	c6 84 d0 a4 90 02 00 	movb   $0x0,0x290a4(%eax,%edx,8)
  100e19:	00 
  100e1a:	0f b6 8c d0 a5 90 02 	movzbl 0x290a5(%eax,%edx,8),%ecx
  100e21:	00 
  100e22:	83 e1 f0             	and    $0xfffffff0,%ecx
  100e25:	83 c9 0e             	or     $0xe,%ecx
  100e28:	88 8c d0 a5 90 02 00 	mov    %cl,0x290a5(%eax,%edx,8)
  100e2f:	89 cf                	mov    %ecx,%edi
  100e31:	83 e7 ef             	and    $0xffffffef,%edi
  100e34:	89 fb                	mov    %edi,%ebx
  100e36:	88 9c d0 a5 90 02 00 	mov    %bl,0x290a5(%eax,%edx,8)
  100e3d:	83 e1 8f             	and    $0xffffff8f,%ecx
  100e40:	88 8c d0 a5 90 02 00 	mov    %cl,0x290a5(%eax,%edx,8)
  100e47:	83 c9 80             	or     $0xffffff80,%ecx
  100e4a:	88 8c d0 a5 90 02 00 	mov    %cl,0x290a5(%eax,%edx,8)
  100e51:	89 eb                	mov    %ebp,%ebx
  100e53:	c1 eb 10             	shr    $0x10,%ebx
  100e56:	66 89 5e 06          	mov    %bx,0x6(%esi)
    for (i = 0; i < sizeof(idt) / sizeof(idt[0]); i++)
  100e5a:	83 c2 01             	add    $0x1,%edx
  100e5d:	81 fa ff 00 00 00    	cmp    $0xff,%edx
  100e63:	76 80                	jbe    100de5 <intr_init_idt+0x15>

    SETGATE(idt[T_DIVIDE],                  0, CPU_GDT_KCODE, &Xdivide,         0);
  100e65:	c7 c1 60 24 10 00    	mov    $0x102460,%ecx
  100e6b:	66 89 88 a0 90 02 00 	mov    %cx,0x290a0(%eax)
  100e72:	66 c7 80 a2 90 02 00 	movw   $0x8,0x290a2(%eax)
  100e79:	08 00 
  100e7b:	0f b6 90 a4 90 02 00 	movzbl 0x290a4(%eax),%edx
  100e82:	83 e2 e0             	and    $0xffffffe0,%edx
  100e85:	88 90 a4 90 02 00    	mov    %dl,0x290a4(%eax)
  100e8b:	c6 80 a4 90 02 00 00 	movb   $0x0,0x290a4(%eax)
  100e92:	0f b6 90 a5 90 02 00 	movzbl 0x290a5(%eax),%edx
  100e99:	83 e2 f0             	and    $0xfffffff0,%edx
  100e9c:	83 ca 0e             	or     $0xe,%edx
  100e9f:	88 90 a5 90 02 00    	mov    %dl,0x290a5(%eax)
  100ea5:	89 d3                	mov    %edx,%ebx
  100ea7:	83 e3 ef             	and    $0xffffffef,%ebx
  100eaa:	88 98 a5 90 02 00    	mov    %bl,0x290a5(%eax)
  100eb0:	83 e2 8f             	and    $0xffffff8f,%edx
  100eb3:	88 90 a5 90 02 00    	mov    %dl,0x290a5(%eax)
  100eb9:	83 ca 80             	or     $0xffffff80,%edx
  100ebc:	88 90 a5 90 02 00    	mov    %dl,0x290a5(%eax)
  100ec2:	c1 e9 10             	shr    $0x10,%ecx
  100ec5:	66 89 88 a6 90 02 00 	mov    %cx,0x290a6(%eax)
    SETGATE(idt[T_DEBUG],                   0, CPU_GDT_KCODE, &Xdebug,          0);
  100ecc:	c7 c1 6a 24 10 00    	mov    $0x10246a,%ecx
  100ed2:	66 89 88 a8 90 02 00 	mov    %cx,0x290a8(%eax)
  100ed9:	66 c7 80 aa 90 02 00 	movw   $0x8,0x290aa(%eax)
  100ee0:	08 00 
  100ee2:	0f b6 90 ac 90 02 00 	movzbl 0x290ac(%eax),%edx
  100ee9:	83 e2 e0             	and    $0xffffffe0,%edx
  100eec:	88 90 ac 90 02 00    	mov    %dl,0x290ac(%eax)
  100ef2:	c6 80 ac 90 02 00 00 	movb   $0x0,0x290ac(%eax)
  100ef9:	0f b6 90 ad 90 02 00 	movzbl 0x290ad(%eax),%edx
  100f00:	83 e2 f0             	and    $0xfffffff0,%edx
  100f03:	83 ca 0e             	or     $0xe,%edx
  100f06:	88 90 ad 90 02 00    	mov    %dl,0x290ad(%eax)
  100f0c:	89 d3                	mov    %edx,%ebx
  100f0e:	83 e3 ef             	and    $0xffffffef,%ebx
  100f11:	88 98 ad 90 02 00    	mov    %bl,0x290ad(%eax)
  100f17:	83 e2 8f             	and    $0xffffff8f,%edx
  100f1a:	88 90 ad 90 02 00    	mov    %dl,0x290ad(%eax)
  100f20:	83 ca 80             	or     $0xffffff80,%edx
  100f23:	88 90 ad 90 02 00    	mov    %dl,0x290ad(%eax)
  100f29:	c1 e9 10             	shr    $0x10,%ecx
  100f2c:	66 89 88 ae 90 02 00 	mov    %cx,0x290ae(%eax)
    SETGATE(idt[T_NMI],                     0, CPU_GDT_KCODE, &Xnmi,            0);
  100f33:	c7 c1 74 24 10 00    	mov    $0x102474,%ecx
  100f39:	66 89 88 b0 90 02 00 	mov    %cx,0x290b0(%eax)
  100f40:	66 c7 80 b2 90 02 00 	movw   $0x8,0x290b2(%eax)
  100f47:	08 00 
  100f49:	0f b6 90 b4 90 02 00 	movzbl 0x290b4(%eax),%edx
  100f50:	83 e2 e0             	and    $0xffffffe0,%edx
  100f53:	88 90 b4 90 02 00    	mov    %dl,0x290b4(%eax)
  100f59:	c6 80 b4 90 02 00 00 	movb   $0x0,0x290b4(%eax)
  100f60:	0f b6 90 b5 90 02 00 	movzbl 0x290b5(%eax),%edx
  100f67:	83 e2 f0             	and    $0xfffffff0,%edx
  100f6a:	83 ca 0e             	or     $0xe,%edx
  100f6d:	88 90 b5 90 02 00    	mov    %dl,0x290b5(%eax)
  100f73:	89 d3                	mov    %edx,%ebx
  100f75:	83 e3 ef             	and    $0xffffffef,%ebx
  100f78:	88 98 b5 90 02 00    	mov    %bl,0x290b5(%eax)
  100f7e:	83 e2 8f             	and    $0xffffff8f,%edx
  100f81:	88 90 b5 90 02 00    	mov    %dl,0x290b5(%eax)
  100f87:	83 ca 80             	or     $0xffffff80,%edx
  100f8a:	88 90 b5 90 02 00    	mov    %dl,0x290b5(%eax)
  100f90:	c1 e9 10             	shr    $0x10,%ecx
  100f93:	66 89 88 b6 90 02 00 	mov    %cx,0x290b6(%eax)
    SETGATE(idt[T_BRKPT],                   0, CPU_GDT_KCODE, &Xbrkpt,          3);
  100f9a:	c7 c1 7e 24 10 00    	mov    $0x10247e,%ecx
  100fa0:	66 89 88 b8 90 02 00 	mov    %cx,0x290b8(%eax)
  100fa7:	66 c7 80 ba 90 02 00 	movw   $0x8,0x290ba(%eax)
  100fae:	08 00 
  100fb0:	0f b6 90 bc 90 02 00 	movzbl 0x290bc(%eax),%edx
  100fb7:	83 e2 e0             	and    $0xffffffe0,%edx
  100fba:	88 90 bc 90 02 00    	mov    %dl,0x290bc(%eax)
  100fc0:	c6 80 bc 90 02 00 00 	movb   $0x0,0x290bc(%eax)
  100fc7:	0f b6 90 bd 90 02 00 	movzbl 0x290bd(%eax),%edx
  100fce:	83 e2 f0             	and    $0xfffffff0,%edx
  100fd1:	83 ca 0e             	or     $0xe,%edx
  100fd4:	88 90 bd 90 02 00    	mov    %dl,0x290bd(%eax)
  100fda:	83 e2 ef             	and    $0xffffffef,%edx
  100fdd:	88 90 bd 90 02 00    	mov    %dl,0x290bd(%eax)
  100fe3:	89 d3                	mov    %edx,%ebx
  100fe5:	83 cb 60             	or     $0x60,%ebx
  100fe8:	88 98 bd 90 02 00    	mov    %bl,0x290bd(%eax)
  100fee:	83 ca e0             	or     $0xffffffe0,%edx
  100ff1:	88 90 bd 90 02 00    	mov    %dl,0x290bd(%eax)
  100ff7:	c1 e9 10             	shr    $0x10,%ecx
  100ffa:	66 89 88 be 90 02 00 	mov    %cx,0x290be(%eax)
    SETGATE(idt[T_OFLOW],                   0, CPU_GDT_KCODE, &Xoflow,          3);
  101001:	c7 c1 88 24 10 00    	mov    $0x102488,%ecx
  101007:	66 89 88 c0 90 02 00 	mov    %cx,0x290c0(%eax)
  10100e:	66 c7 80 c2 90 02 00 	movw   $0x8,0x290c2(%eax)
  101015:	08 00 
  101017:	0f b6 90 c4 90 02 00 	movzbl 0x290c4(%eax),%edx
  10101e:	83 e2 e0             	and    $0xffffffe0,%edx
  101021:	88 90 c4 90 02 00    	mov    %dl,0x290c4(%eax)
  101027:	c6 80 c4 90 02 00 00 	movb   $0x0,0x290c4(%eax)
  10102e:	0f b6 90 c5 90 02 00 	movzbl 0x290c5(%eax),%edx
  101035:	83 e2 f0             	and    $0xfffffff0,%edx
  101038:	83 ca 0e             	or     $0xe,%edx
  10103b:	88 90 c5 90 02 00    	mov    %dl,0x290c5(%eax)
  101041:	83 e2 ef             	and    $0xffffffef,%edx
  101044:	88 90 c5 90 02 00    	mov    %dl,0x290c5(%eax)
  10104a:	89 d3                	mov    %edx,%ebx
  10104c:	83 cb 60             	or     $0x60,%ebx
  10104f:	88 98 c5 90 02 00    	mov    %bl,0x290c5(%eax)
  101055:	83 ca e0             	or     $0xffffffe0,%edx
  101058:	88 90 c5 90 02 00    	mov    %dl,0x290c5(%eax)
  10105e:	c1 e9 10             	shr    $0x10,%ecx
  101061:	66 89 88 c6 90 02 00 	mov    %cx,0x290c6(%eax)
    SETGATE(idt[T_BOUND],                   0, CPU_GDT_KCODE, &Xbound,          0);
  101068:	c7 c1 92 24 10 00    	mov    $0x102492,%ecx
  10106e:	66 89 88 c8 90 02 00 	mov    %cx,0x290c8(%eax)
  101075:	66 c7 80 ca 90 02 00 	movw   $0x8,0x290ca(%eax)
  10107c:	08 00 
  10107e:	0f b6 90 cc 90 02 00 	movzbl 0x290cc(%eax),%edx
  101085:	83 e2 e0             	and    $0xffffffe0,%edx
  101088:	88 90 cc 90 02 00    	mov    %dl,0x290cc(%eax)
  10108e:	c6 80 cc 90 02 00 00 	movb   $0x0,0x290cc(%eax)
  101095:	0f b6 90 cd 90 02 00 	movzbl 0x290cd(%eax),%edx
  10109c:	83 e2 f0             	and    $0xfffffff0,%edx
  10109f:	83 ca 0e             	or     $0xe,%edx
  1010a2:	88 90 cd 90 02 00    	mov    %dl,0x290cd(%eax)
  1010a8:	89 d3                	mov    %edx,%ebx
  1010aa:	83 e3 ef             	and    $0xffffffef,%ebx
  1010ad:	88 98 cd 90 02 00    	mov    %bl,0x290cd(%eax)
  1010b3:	83 e2 8f             	and    $0xffffff8f,%edx
  1010b6:	88 90 cd 90 02 00    	mov    %dl,0x290cd(%eax)
  1010bc:	83 ca 80             	or     $0xffffff80,%edx
  1010bf:	88 90 cd 90 02 00    	mov    %dl,0x290cd(%eax)
  1010c5:	c1 e9 10             	shr    $0x10,%ecx
  1010c8:	66 89 88 ce 90 02 00 	mov    %cx,0x290ce(%eax)
    SETGATE(idt[T_ILLOP],                   0, CPU_GDT_KCODE, &Xillop,          0);
  1010cf:	c7 c1 9c 24 10 00    	mov    $0x10249c,%ecx
  1010d5:	66 89 88 d0 90 02 00 	mov    %cx,0x290d0(%eax)
  1010dc:	66 c7 80 d2 90 02 00 	movw   $0x8,0x290d2(%eax)
  1010e3:	08 00 
  1010e5:	0f b6 90 d4 90 02 00 	movzbl 0x290d4(%eax),%edx
  1010ec:	83 e2 e0             	and    $0xffffffe0,%edx
  1010ef:	88 90 d4 90 02 00    	mov    %dl,0x290d4(%eax)
  1010f5:	c6 80 d4 90 02 00 00 	movb   $0x0,0x290d4(%eax)
  1010fc:	0f b6 90 d5 90 02 00 	movzbl 0x290d5(%eax),%edx
  101103:	83 e2 f0             	and    $0xfffffff0,%edx
  101106:	83 ca 0e             	or     $0xe,%edx
  101109:	88 90 d5 90 02 00    	mov    %dl,0x290d5(%eax)
  10110f:	89 d3                	mov    %edx,%ebx
  101111:	83 e3 ef             	and    $0xffffffef,%ebx
  101114:	88 98 d5 90 02 00    	mov    %bl,0x290d5(%eax)
  10111a:	83 e2 8f             	and    $0xffffff8f,%edx
  10111d:	88 90 d5 90 02 00    	mov    %dl,0x290d5(%eax)
  101123:	83 ca 80             	or     $0xffffff80,%edx
  101126:	88 90 d5 90 02 00    	mov    %dl,0x290d5(%eax)
  10112c:	c1 e9 10             	shr    $0x10,%ecx
  10112f:	66 89 88 d6 90 02 00 	mov    %cx,0x290d6(%eax)
    SETGATE(idt[T_DEVICE],                  0, CPU_GDT_KCODE, &Xdevice,         0);
  101136:	c7 c1 a6 24 10 00    	mov    $0x1024a6,%ecx
  10113c:	66 89 88 d8 90 02 00 	mov    %cx,0x290d8(%eax)
  101143:	66 c7 80 da 90 02 00 	movw   $0x8,0x290da(%eax)
  10114a:	08 00 
  10114c:	0f b6 90 dc 90 02 00 	movzbl 0x290dc(%eax),%edx
  101153:	83 e2 e0             	and    $0xffffffe0,%edx
  101156:	88 90 dc 90 02 00    	mov    %dl,0x290dc(%eax)
  10115c:	c6 80 dc 90 02 00 00 	movb   $0x0,0x290dc(%eax)
  101163:	0f b6 90 dd 90 02 00 	movzbl 0x290dd(%eax),%edx
  10116a:	83 e2 f0             	and    $0xfffffff0,%edx
  10116d:	83 ca 0e             	or     $0xe,%edx
  101170:	88 90 dd 90 02 00    	mov    %dl,0x290dd(%eax)
  101176:	89 d3                	mov    %edx,%ebx
  101178:	83 e3 ef             	and    $0xffffffef,%ebx
  10117b:	88 98 dd 90 02 00    	mov    %bl,0x290dd(%eax)
  101181:	83 e2 8f             	and    $0xffffff8f,%edx
  101184:	88 90 dd 90 02 00    	mov    %dl,0x290dd(%eax)
  10118a:	83 ca 80             	or     $0xffffff80,%edx
  10118d:	88 90 dd 90 02 00    	mov    %dl,0x290dd(%eax)
  101193:	c1 e9 10             	shr    $0x10,%ecx
  101196:	66 89 88 de 90 02 00 	mov    %cx,0x290de(%eax)
    SETGATE(idt[T_DBLFLT],                  0, CPU_GDT_KCODE, &Xdblflt,         0);
  10119d:	c7 c1 b0 24 10 00    	mov    $0x1024b0,%ecx
  1011a3:	66 89 88 e0 90 02 00 	mov    %cx,0x290e0(%eax)
  1011aa:	66 c7 80 e2 90 02 00 	movw   $0x8,0x290e2(%eax)
  1011b1:	08 00 
  1011b3:	0f b6 90 e4 90 02 00 	movzbl 0x290e4(%eax),%edx
  1011ba:	83 e2 e0             	and    $0xffffffe0,%edx
  1011bd:	88 90 e4 90 02 00    	mov    %dl,0x290e4(%eax)
  1011c3:	c6 80 e4 90 02 00 00 	movb   $0x0,0x290e4(%eax)
  1011ca:	0f b6 90 e5 90 02 00 	movzbl 0x290e5(%eax),%edx
  1011d1:	83 e2 f0             	and    $0xfffffff0,%edx
  1011d4:	83 ca 0e             	or     $0xe,%edx
  1011d7:	88 90 e5 90 02 00    	mov    %dl,0x290e5(%eax)
  1011dd:	89 d3                	mov    %edx,%ebx
  1011df:	83 e3 ef             	and    $0xffffffef,%ebx
  1011e2:	88 98 e5 90 02 00    	mov    %bl,0x290e5(%eax)
  1011e8:	83 e2 8f             	and    $0xffffff8f,%edx
  1011eb:	88 90 e5 90 02 00    	mov    %dl,0x290e5(%eax)
  1011f1:	83 ca 80             	or     $0xffffff80,%edx
  1011f4:	88 90 e5 90 02 00    	mov    %dl,0x290e5(%eax)
  1011fa:	c1 e9 10             	shr    $0x10,%ecx
  1011fd:	66 89 88 e6 90 02 00 	mov    %cx,0x290e6(%eax)
    SETGATE(idt[T_TSS],                     0, CPU_GDT_KCODE, &Xtss,            0);
  101204:	c7 c1 c2 24 10 00    	mov    $0x1024c2,%ecx
  10120a:	66 89 88 f0 90 02 00 	mov    %cx,0x290f0(%eax)
  101211:	66 c7 80 f2 90 02 00 	movw   $0x8,0x290f2(%eax)
  101218:	08 00 
  10121a:	0f b6 90 f4 90 02 00 	movzbl 0x290f4(%eax),%edx
  101221:	83 e2 e0             	and    $0xffffffe0,%edx
  101224:	88 90 f4 90 02 00    	mov    %dl,0x290f4(%eax)
  10122a:	c6 80 f4 90 02 00 00 	movb   $0x0,0x290f4(%eax)
  101231:	0f b6 90 f5 90 02 00 	movzbl 0x290f5(%eax),%edx
  101238:	83 e2 f0             	and    $0xfffffff0,%edx
  10123b:	83 ca 0e             	or     $0xe,%edx
  10123e:	88 90 f5 90 02 00    	mov    %dl,0x290f5(%eax)
  101244:	89 d3                	mov    %edx,%ebx
  101246:	83 e3 ef             	and    $0xffffffef,%ebx
  101249:	88 98 f5 90 02 00    	mov    %bl,0x290f5(%eax)
  10124f:	83 e2 8f             	and    $0xffffff8f,%edx
  101252:	88 90 f5 90 02 00    	mov    %dl,0x290f5(%eax)
  101258:	83 ca 80             	or     $0xffffff80,%edx
  10125b:	88 90 f5 90 02 00    	mov    %dl,0x290f5(%eax)
  101261:	c1 e9 10             	shr    $0x10,%ecx
  101264:	66 89 88 f6 90 02 00 	mov    %cx,0x290f6(%eax)
    SETGATE(idt[T_SEGNP],                   0, CPU_GDT_KCODE, &Xsegnp,          0);
  10126b:	c7 c1 ca 24 10 00    	mov    $0x1024ca,%ecx
  101271:	66 89 88 f8 90 02 00 	mov    %cx,0x290f8(%eax)
  101278:	66 c7 80 fa 90 02 00 	movw   $0x8,0x290fa(%eax)
  10127f:	08 00 
  101281:	0f b6 90 fc 90 02 00 	movzbl 0x290fc(%eax),%edx
  101288:	83 e2 e0             	and    $0xffffffe0,%edx
  10128b:	88 90 fc 90 02 00    	mov    %dl,0x290fc(%eax)
  101291:	c6 80 fc 90 02 00 00 	movb   $0x0,0x290fc(%eax)
  101298:	0f b6 90 fd 90 02 00 	movzbl 0x290fd(%eax),%edx
  10129f:	83 e2 f0             	and    $0xfffffff0,%edx
  1012a2:	83 ca 0e             	or     $0xe,%edx
  1012a5:	88 90 fd 90 02 00    	mov    %dl,0x290fd(%eax)
  1012ab:	89 d3                	mov    %edx,%ebx
  1012ad:	83 e3 ef             	and    $0xffffffef,%ebx
  1012b0:	88 98 fd 90 02 00    	mov    %bl,0x290fd(%eax)
  1012b6:	83 e2 8f             	and    $0xffffff8f,%edx
  1012b9:	88 90 fd 90 02 00    	mov    %dl,0x290fd(%eax)
  1012bf:	83 ca 80             	or     $0xffffff80,%edx
  1012c2:	88 90 fd 90 02 00    	mov    %dl,0x290fd(%eax)
  1012c8:	c1 e9 10             	shr    $0x10,%ecx
  1012cb:	66 89 88 fe 90 02 00 	mov    %cx,0x290fe(%eax)
    SETGATE(idt[T_STACK],                   0, CPU_GDT_KCODE, &Xstack,          0);
  1012d2:	c7 c1 d2 24 10 00    	mov    $0x1024d2,%ecx
  1012d8:	66 89 88 00 91 02 00 	mov    %cx,0x29100(%eax)
  1012df:	66 c7 80 02 91 02 00 	movw   $0x8,0x29102(%eax)
  1012e6:	08 00 
  1012e8:	0f b6 90 04 91 02 00 	movzbl 0x29104(%eax),%edx
  1012ef:	83 e2 e0             	and    $0xffffffe0,%edx
  1012f2:	88 90 04 91 02 00    	mov    %dl,0x29104(%eax)
  1012f8:	c6 80 04 91 02 00 00 	movb   $0x0,0x29104(%eax)
  1012ff:	0f b6 90 05 91 02 00 	movzbl 0x29105(%eax),%edx
  101306:	83 e2 f0             	and    $0xfffffff0,%edx
  101309:	83 ca 0e             	or     $0xe,%edx
  10130c:	88 90 05 91 02 00    	mov    %dl,0x29105(%eax)
  101312:	89 d3                	mov    %edx,%ebx
  101314:	83 e3 ef             	and    $0xffffffef,%ebx
  101317:	88 98 05 91 02 00    	mov    %bl,0x29105(%eax)
  10131d:	83 e2 8f             	and    $0xffffff8f,%edx
  101320:	88 90 05 91 02 00    	mov    %dl,0x29105(%eax)
  101326:	83 ca 80             	or     $0xffffff80,%edx
  101329:	88 90 05 91 02 00    	mov    %dl,0x29105(%eax)
  10132f:	c1 e9 10             	shr    $0x10,%ecx
  101332:	66 89 88 06 91 02 00 	mov    %cx,0x29106(%eax)
    SETGATE(idt[T_GPFLT],                   0, CPU_GDT_KCODE, &Xgpflt,          0);
  101339:	c7 c1 da 24 10 00    	mov    $0x1024da,%ecx
  10133f:	66 89 88 08 91 02 00 	mov    %cx,0x29108(%eax)
  101346:	66 c7 80 0a 91 02 00 	movw   $0x8,0x2910a(%eax)
  10134d:	08 00 
  10134f:	0f b6 90 0c 91 02 00 	movzbl 0x2910c(%eax),%edx
  101356:	83 e2 e0             	and    $0xffffffe0,%edx
  101359:	88 90 0c 91 02 00    	mov    %dl,0x2910c(%eax)
  10135f:	c6 80 0c 91 02 00 00 	movb   $0x0,0x2910c(%eax)
  101366:	0f b6 90 0d 91 02 00 	movzbl 0x2910d(%eax),%edx
  10136d:	83 e2 f0             	and    $0xfffffff0,%edx
  101370:	83 ca 0e             	or     $0xe,%edx
  101373:	88 90 0d 91 02 00    	mov    %dl,0x2910d(%eax)
  101379:	89 d3                	mov    %edx,%ebx
  10137b:	83 e3 ef             	and    $0xffffffef,%ebx
  10137e:	88 98 0d 91 02 00    	mov    %bl,0x2910d(%eax)
  101384:	83 e2 8f             	and    $0xffffff8f,%edx
  101387:	88 90 0d 91 02 00    	mov    %dl,0x2910d(%eax)
  10138d:	83 ca 80             	or     $0xffffff80,%edx
  101390:	88 90 0d 91 02 00    	mov    %dl,0x2910d(%eax)
  101396:	c1 e9 10             	shr    $0x10,%ecx
  101399:	66 89 88 0e 91 02 00 	mov    %cx,0x2910e(%eax)
    SETGATE(idt[T_PGFLT],                   0, CPU_GDT_KCODE, &Xpgflt,          0);
  1013a0:	c7 c1 e2 24 10 00    	mov    $0x1024e2,%ecx
  1013a6:	66 89 88 10 91 02 00 	mov    %cx,0x29110(%eax)
  1013ad:	66 c7 80 12 91 02 00 	movw   $0x8,0x29112(%eax)
  1013b4:	08 00 
  1013b6:	0f b6 90 14 91 02 00 	movzbl 0x29114(%eax),%edx
  1013bd:	83 e2 e0             	and    $0xffffffe0,%edx
  1013c0:	88 90 14 91 02 00    	mov    %dl,0x29114(%eax)
  1013c6:	c6 80 14 91 02 00 00 	movb   $0x0,0x29114(%eax)
  1013cd:	0f b6 90 15 91 02 00 	movzbl 0x29115(%eax),%edx
  1013d4:	83 e2 f0             	and    $0xfffffff0,%edx
  1013d7:	83 ca 0e             	or     $0xe,%edx
  1013da:	88 90 15 91 02 00    	mov    %dl,0x29115(%eax)
  1013e0:	89 d3                	mov    %edx,%ebx
  1013e2:	83 e3 ef             	and    $0xffffffef,%ebx
  1013e5:	88 98 15 91 02 00    	mov    %bl,0x29115(%eax)
  1013eb:	83 e2 8f             	and    $0xffffff8f,%edx
  1013ee:	88 90 15 91 02 00    	mov    %dl,0x29115(%eax)
  1013f4:	83 ca 80             	or     $0xffffff80,%edx
  1013f7:	88 90 15 91 02 00    	mov    %dl,0x29115(%eax)
  1013fd:	c1 e9 10             	shr    $0x10,%ecx
  101400:	66 89 88 16 91 02 00 	mov    %cx,0x29116(%eax)
    SETGATE(idt[T_FPERR],                   0, CPU_GDT_KCODE, &Xfperr,          0);
  101407:	c7 c1 f4 24 10 00    	mov    $0x1024f4,%ecx
  10140d:	66 89 88 20 91 02 00 	mov    %cx,0x29120(%eax)
  101414:	66 c7 80 22 91 02 00 	movw   $0x8,0x29122(%eax)
  10141b:	08 00 
  10141d:	0f b6 90 24 91 02 00 	movzbl 0x29124(%eax),%edx
  101424:	83 e2 e0             	and    $0xffffffe0,%edx
  101427:	88 90 24 91 02 00    	mov    %dl,0x29124(%eax)
  10142d:	c6 80 24 91 02 00 00 	movb   $0x0,0x29124(%eax)
  101434:	0f b6 90 25 91 02 00 	movzbl 0x29125(%eax),%edx
  10143b:	83 e2 f0             	and    $0xfffffff0,%edx
  10143e:	83 ca 0e             	or     $0xe,%edx
  101441:	88 90 25 91 02 00    	mov    %dl,0x29125(%eax)
  101447:	89 d3                	mov    %edx,%ebx
  101449:	83 e3 ef             	and    $0xffffffef,%ebx
  10144c:	88 98 25 91 02 00    	mov    %bl,0x29125(%eax)
  101452:	83 e2 8f             	and    $0xffffff8f,%edx
  101455:	88 90 25 91 02 00    	mov    %dl,0x29125(%eax)
  10145b:	83 ca 80             	or     $0xffffff80,%edx
  10145e:	88 90 25 91 02 00    	mov    %dl,0x29125(%eax)
  101464:	c1 e9 10             	shr    $0x10,%ecx
  101467:	66 89 88 26 91 02 00 	mov    %cx,0x29126(%eax)
    SETGATE(idt[T_ALIGN],                   0, CPU_GDT_KCODE, &Xalign,          0);
  10146e:	c7 c1 fe 24 10 00    	mov    $0x1024fe,%ecx
  101474:	66 89 88 28 91 02 00 	mov    %cx,0x29128(%eax)
  10147b:	66 c7 80 2a 91 02 00 	movw   $0x8,0x2912a(%eax)
  101482:	08 00 
  101484:	0f b6 90 2c 91 02 00 	movzbl 0x2912c(%eax),%edx
  10148b:	83 e2 e0             	and    $0xffffffe0,%edx
  10148e:	88 90 2c 91 02 00    	mov    %dl,0x2912c(%eax)
  101494:	c6 80 2c 91 02 00 00 	movb   $0x0,0x2912c(%eax)
  10149b:	0f b6 90 2d 91 02 00 	movzbl 0x2912d(%eax),%edx
  1014a2:	83 e2 f0             	and    $0xfffffff0,%edx
  1014a5:	83 ca 0e             	or     $0xe,%edx
  1014a8:	88 90 2d 91 02 00    	mov    %dl,0x2912d(%eax)
  1014ae:	89 d3                	mov    %edx,%ebx
  1014b0:	83 e3 ef             	and    $0xffffffef,%ebx
  1014b3:	88 98 2d 91 02 00    	mov    %bl,0x2912d(%eax)
  1014b9:	83 e2 8f             	and    $0xffffff8f,%edx
  1014bc:	88 90 2d 91 02 00    	mov    %dl,0x2912d(%eax)
  1014c2:	83 ca 80             	or     $0xffffff80,%edx
  1014c5:	88 90 2d 91 02 00    	mov    %dl,0x2912d(%eax)
  1014cb:	c1 e9 10             	shr    $0x10,%ecx
  1014ce:	66 89 88 2e 91 02 00 	mov    %cx,0x2912e(%eax)
    SETGATE(idt[T_MCHK],                    0, CPU_GDT_KCODE, &Xmchk,           0);
  1014d5:	c7 c1 02 25 10 00    	mov    $0x102502,%ecx
  1014db:	66 89 88 30 91 02 00 	mov    %cx,0x29130(%eax)
  1014e2:	66 c7 80 32 91 02 00 	movw   $0x8,0x29132(%eax)
  1014e9:	08 00 
  1014eb:	0f b6 90 34 91 02 00 	movzbl 0x29134(%eax),%edx
  1014f2:	83 e2 e0             	and    $0xffffffe0,%edx
  1014f5:	88 90 34 91 02 00    	mov    %dl,0x29134(%eax)
  1014fb:	c6 80 34 91 02 00 00 	movb   $0x0,0x29134(%eax)
  101502:	0f b6 90 35 91 02 00 	movzbl 0x29135(%eax),%edx
  101509:	83 e2 f0             	and    $0xfffffff0,%edx
  10150c:	83 ca 0e             	or     $0xe,%edx
  10150f:	88 90 35 91 02 00    	mov    %dl,0x29135(%eax)
  101515:	89 d3                	mov    %edx,%ebx
  101517:	83 e3 ef             	and    $0xffffffef,%ebx
  10151a:	88 98 35 91 02 00    	mov    %bl,0x29135(%eax)
  101520:	83 e2 8f             	and    $0xffffff8f,%edx
  101523:	88 90 35 91 02 00    	mov    %dl,0x29135(%eax)
  101529:	83 ca 80             	or     $0xffffff80,%edx
  10152c:	88 90 35 91 02 00    	mov    %dl,0x29135(%eax)
  101532:	c1 e9 10             	shr    $0x10,%ecx
  101535:	66 89 88 36 91 02 00 	mov    %cx,0x29136(%eax)

    SETGATE(idt[T_IRQ0 + IRQ_TIMER],        0, CPU_GDT_KCODE, &Xirq_timer,      0);
  10153c:	c7 c1 08 25 10 00    	mov    $0x102508,%ecx
  101542:	66 89 88 a0 91 02 00 	mov    %cx,0x291a0(%eax)
  101549:	66 c7 80 a2 91 02 00 	movw   $0x8,0x291a2(%eax)
  101550:	08 00 
  101552:	0f b6 90 a4 91 02 00 	movzbl 0x291a4(%eax),%edx
  101559:	83 e2 e0             	and    $0xffffffe0,%edx
  10155c:	88 90 a4 91 02 00    	mov    %dl,0x291a4(%eax)
  101562:	c6 80 a4 91 02 00 00 	movb   $0x0,0x291a4(%eax)
  101569:	0f b6 90 a5 91 02 00 	movzbl 0x291a5(%eax),%edx
  101570:	83 e2 f0             	and    $0xfffffff0,%edx
  101573:	83 ca 0e             	or     $0xe,%edx
  101576:	88 90 a5 91 02 00    	mov    %dl,0x291a5(%eax)
  10157c:	89 d3                	mov    %edx,%ebx
  10157e:	83 e3 ef             	and    $0xffffffef,%ebx
  101581:	88 98 a5 91 02 00    	mov    %bl,0x291a5(%eax)
  101587:	83 e2 8f             	and    $0xffffff8f,%edx
  10158a:	88 90 a5 91 02 00    	mov    %dl,0x291a5(%eax)
  101590:	83 ca 80             	or     $0xffffff80,%edx
  101593:	88 90 a5 91 02 00    	mov    %dl,0x291a5(%eax)
  101599:	c1 e9 10             	shr    $0x10,%ecx
  10159c:	66 89 88 a6 91 02 00 	mov    %cx,0x291a6(%eax)
    SETGATE(idt[T_IRQ0 + IRQ_KBD],          0, CPU_GDT_KCODE, &Xirq_kbd,        0);
  1015a3:	c7 c1 0e 25 10 00    	mov    $0x10250e,%ecx
  1015a9:	66 89 88 a8 91 02 00 	mov    %cx,0x291a8(%eax)
  1015b0:	66 c7 80 aa 91 02 00 	movw   $0x8,0x291aa(%eax)
  1015b7:	08 00 
  1015b9:	0f b6 90 ac 91 02 00 	movzbl 0x291ac(%eax),%edx
  1015c0:	83 e2 e0             	and    $0xffffffe0,%edx
  1015c3:	88 90 ac 91 02 00    	mov    %dl,0x291ac(%eax)
  1015c9:	c6 80 ac 91 02 00 00 	movb   $0x0,0x291ac(%eax)
  1015d0:	0f b6 90 ad 91 02 00 	movzbl 0x291ad(%eax),%edx
  1015d7:	83 e2 f0             	and    $0xfffffff0,%edx
  1015da:	83 ca 0e             	or     $0xe,%edx
  1015dd:	88 90 ad 91 02 00    	mov    %dl,0x291ad(%eax)
  1015e3:	89 d3                	mov    %edx,%ebx
  1015e5:	83 e3 ef             	and    $0xffffffef,%ebx
  1015e8:	88 98 ad 91 02 00    	mov    %bl,0x291ad(%eax)
  1015ee:	83 e2 8f             	and    $0xffffff8f,%edx
  1015f1:	88 90 ad 91 02 00    	mov    %dl,0x291ad(%eax)
  1015f7:	83 ca 80             	or     $0xffffff80,%edx
  1015fa:	88 90 ad 91 02 00    	mov    %dl,0x291ad(%eax)
  101600:	c1 e9 10             	shr    $0x10,%ecx
  101603:	66 89 88 ae 91 02 00 	mov    %cx,0x291ae(%eax)
    SETGATE(idt[T_IRQ0 + IRQ_SLAVE],        0, CPU_GDT_KCODE, &Xirq_slave,      0);
  10160a:	c7 c1 14 25 10 00    	mov    $0x102514,%ecx
  101610:	66 89 88 b0 91 02 00 	mov    %cx,0x291b0(%eax)
  101617:	66 c7 80 b2 91 02 00 	movw   $0x8,0x291b2(%eax)
  10161e:	08 00 
  101620:	0f b6 90 b4 91 02 00 	movzbl 0x291b4(%eax),%edx
  101627:	83 e2 e0             	and    $0xffffffe0,%edx
  10162a:	88 90 b4 91 02 00    	mov    %dl,0x291b4(%eax)
  101630:	c6 80 b4 91 02 00 00 	movb   $0x0,0x291b4(%eax)
  101637:	0f b6 90 b5 91 02 00 	movzbl 0x291b5(%eax),%edx
  10163e:	83 e2 f0             	and    $0xfffffff0,%edx
  101641:	83 ca 0e             	or     $0xe,%edx
  101644:	88 90 b5 91 02 00    	mov    %dl,0x291b5(%eax)
  10164a:	89 d3                	mov    %edx,%ebx
  10164c:	83 e3 ef             	and    $0xffffffef,%ebx
  10164f:	88 98 b5 91 02 00    	mov    %bl,0x291b5(%eax)
  101655:	83 e2 8f             	and    $0xffffff8f,%edx
  101658:	88 90 b5 91 02 00    	mov    %dl,0x291b5(%eax)
  10165e:	83 ca 80             	or     $0xffffff80,%edx
  101661:	88 90 b5 91 02 00    	mov    %dl,0x291b5(%eax)
  101667:	c1 e9 10             	shr    $0x10,%ecx
  10166a:	66 89 88 b6 91 02 00 	mov    %cx,0x291b6(%eax)
    SETGATE(idt[T_IRQ0 + IRQ_SERIAL24],     0, CPU_GDT_KCODE, &Xirq_serial2,    0);
  101671:	c7 c1 1a 25 10 00    	mov    $0x10251a,%ecx
  101677:	66 89 88 b8 91 02 00 	mov    %cx,0x291b8(%eax)
  10167e:	66 c7 80 ba 91 02 00 	movw   $0x8,0x291ba(%eax)
  101685:	08 00 
  101687:	0f b6 90 bc 91 02 00 	movzbl 0x291bc(%eax),%edx
  10168e:	83 e2 e0             	and    $0xffffffe0,%edx
  101691:	88 90 bc 91 02 00    	mov    %dl,0x291bc(%eax)
  101697:	c6 80 bc 91 02 00 00 	movb   $0x0,0x291bc(%eax)
  10169e:	0f b6 90 bd 91 02 00 	movzbl 0x291bd(%eax),%edx
  1016a5:	83 e2 f0             	and    $0xfffffff0,%edx
  1016a8:	83 ca 0e             	or     $0xe,%edx
  1016ab:	88 90 bd 91 02 00    	mov    %dl,0x291bd(%eax)
  1016b1:	89 d3                	mov    %edx,%ebx
  1016b3:	83 e3 ef             	and    $0xffffffef,%ebx
  1016b6:	88 98 bd 91 02 00    	mov    %bl,0x291bd(%eax)
  1016bc:	83 e2 8f             	and    $0xffffff8f,%edx
  1016bf:	88 90 bd 91 02 00    	mov    %dl,0x291bd(%eax)
  1016c5:	83 ca 80             	or     $0xffffff80,%edx
  1016c8:	88 90 bd 91 02 00    	mov    %dl,0x291bd(%eax)
  1016ce:	c1 e9 10             	shr    $0x10,%ecx
  1016d1:	66 89 88 be 91 02 00 	mov    %cx,0x291be(%eax)
    SETGATE(idt[T_IRQ0 + IRQ_SERIAL13],     0, CPU_GDT_KCODE, &Xirq_serial1,    0);
  1016d8:	c7 c1 20 25 10 00    	mov    $0x102520,%ecx
  1016de:	66 89 88 c0 91 02 00 	mov    %cx,0x291c0(%eax)
  1016e5:	66 c7 80 c2 91 02 00 	movw   $0x8,0x291c2(%eax)
  1016ec:	08 00 
  1016ee:	0f b6 90 c4 91 02 00 	movzbl 0x291c4(%eax),%edx
  1016f5:	83 e2 e0             	and    $0xffffffe0,%edx
  1016f8:	88 90 c4 91 02 00    	mov    %dl,0x291c4(%eax)
  1016fe:	c6 80 c4 91 02 00 00 	movb   $0x0,0x291c4(%eax)
  101705:	0f b6 90 c5 91 02 00 	movzbl 0x291c5(%eax),%edx
  10170c:	83 e2 f0             	and    $0xfffffff0,%edx
  10170f:	83 ca 0e             	or     $0xe,%edx
  101712:	88 90 c5 91 02 00    	mov    %dl,0x291c5(%eax)
  101718:	89 d3                	mov    %edx,%ebx
  10171a:	83 e3 ef             	and    $0xffffffef,%ebx
  10171d:	88 98 c5 91 02 00    	mov    %bl,0x291c5(%eax)
  101723:	83 e2 8f             	and    $0xffffff8f,%edx
  101726:	88 90 c5 91 02 00    	mov    %dl,0x291c5(%eax)
  10172c:	83 ca 80             	or     $0xffffff80,%edx
  10172f:	88 90 c5 91 02 00    	mov    %dl,0x291c5(%eax)
  101735:	c1 e9 10             	shr    $0x10,%ecx
  101738:	66 89 88 c6 91 02 00 	mov    %cx,0x291c6(%eax)
    SETGATE(idt[T_IRQ0 + IRQ_LPT2],         0, CPU_GDT_KCODE, &Xirq_lpt,        0);
  10173f:	c7 c1 26 25 10 00    	mov    $0x102526,%ecx
  101745:	66 89 88 c8 91 02 00 	mov    %cx,0x291c8(%eax)
  10174c:	66 c7 80 ca 91 02 00 	movw   $0x8,0x291ca(%eax)
  101753:	08 00 
  101755:	0f b6 90 cc 91 02 00 	movzbl 0x291cc(%eax),%edx
  10175c:	83 e2 e0             	and    $0xffffffe0,%edx
  10175f:	88 90 cc 91 02 00    	mov    %dl,0x291cc(%eax)
  101765:	c6 80 cc 91 02 00 00 	movb   $0x0,0x291cc(%eax)
  10176c:	0f b6 90 cd 91 02 00 	movzbl 0x291cd(%eax),%edx
  101773:	83 e2 f0             	and    $0xfffffff0,%edx
  101776:	83 ca 0e             	or     $0xe,%edx
  101779:	88 90 cd 91 02 00    	mov    %dl,0x291cd(%eax)
  10177f:	89 d3                	mov    %edx,%ebx
  101781:	83 e3 ef             	and    $0xffffffef,%ebx
  101784:	88 98 cd 91 02 00    	mov    %bl,0x291cd(%eax)
  10178a:	83 e2 8f             	and    $0xffffff8f,%edx
  10178d:	88 90 cd 91 02 00    	mov    %dl,0x291cd(%eax)
  101793:	83 ca 80             	or     $0xffffff80,%edx
  101796:	88 90 cd 91 02 00    	mov    %dl,0x291cd(%eax)
  10179c:	c1 e9 10             	shr    $0x10,%ecx
  10179f:	66 89 88 ce 91 02 00 	mov    %cx,0x291ce(%eax)
    SETGATE(idt[T_IRQ0 + IRQ_FLOPPY],       0, CPU_GDT_KCODE, &Xirq_floppy,     0);
  1017a6:	c7 c1 2c 25 10 00    	mov    $0x10252c,%ecx
  1017ac:	66 89 88 d0 91 02 00 	mov    %cx,0x291d0(%eax)
  1017b3:	66 c7 80 d2 91 02 00 	movw   $0x8,0x291d2(%eax)
  1017ba:	08 00 
  1017bc:	0f b6 90 d4 91 02 00 	movzbl 0x291d4(%eax),%edx
  1017c3:	83 e2 e0             	and    $0xffffffe0,%edx
  1017c6:	88 90 d4 91 02 00    	mov    %dl,0x291d4(%eax)
  1017cc:	c6 80 d4 91 02 00 00 	movb   $0x0,0x291d4(%eax)
  1017d3:	0f b6 90 d5 91 02 00 	movzbl 0x291d5(%eax),%edx
  1017da:	83 e2 f0             	and    $0xfffffff0,%edx
  1017dd:	83 ca 0e             	or     $0xe,%edx
  1017e0:	88 90 d5 91 02 00    	mov    %dl,0x291d5(%eax)
  1017e6:	89 d3                	mov    %edx,%ebx
  1017e8:	83 e3 ef             	and    $0xffffffef,%ebx
  1017eb:	88 98 d5 91 02 00    	mov    %bl,0x291d5(%eax)
  1017f1:	83 e2 8f             	and    $0xffffff8f,%edx
  1017f4:	88 90 d5 91 02 00    	mov    %dl,0x291d5(%eax)
  1017fa:	83 ca 80             	or     $0xffffff80,%edx
  1017fd:	88 90 d5 91 02 00    	mov    %dl,0x291d5(%eax)
  101803:	c1 e9 10             	shr    $0x10,%ecx
  101806:	66 89 88 d6 91 02 00 	mov    %cx,0x291d6(%eax)
    SETGATE(idt[T_IRQ0 + IRQ_SPURIOUS],     0, CPU_GDT_KCODE, &Xirq_spurious,   0);
  10180d:	c7 c1 32 25 10 00    	mov    $0x102532,%ecx
  101813:	66 89 88 d8 91 02 00 	mov    %cx,0x291d8(%eax)
  10181a:	66 c7 80 da 91 02 00 	movw   $0x8,0x291da(%eax)
  101821:	08 00 
  101823:	0f b6 90 dc 91 02 00 	movzbl 0x291dc(%eax),%edx
  10182a:	83 e2 e0             	and    $0xffffffe0,%edx
  10182d:	88 90 dc 91 02 00    	mov    %dl,0x291dc(%eax)
  101833:	c6 80 dc 91 02 00 00 	movb   $0x0,0x291dc(%eax)
  10183a:	0f b6 90 dd 91 02 00 	movzbl 0x291dd(%eax),%edx
  101841:	83 e2 f0             	and    $0xfffffff0,%edx
  101844:	83 ca 0e             	or     $0xe,%edx
  101847:	88 90 dd 91 02 00    	mov    %dl,0x291dd(%eax)
  10184d:	89 d3                	mov    %edx,%ebx
  10184f:	83 e3 ef             	and    $0xffffffef,%ebx
  101852:	88 98 dd 91 02 00    	mov    %bl,0x291dd(%eax)
  101858:	83 e2 8f             	and    $0xffffff8f,%edx
  10185b:	88 90 dd 91 02 00    	mov    %dl,0x291dd(%eax)
  101861:	83 ca 80             	or     $0xffffff80,%edx
  101864:	88 90 dd 91 02 00    	mov    %dl,0x291dd(%eax)
  10186a:	c1 e9 10             	shr    $0x10,%ecx
  10186d:	66 89 88 de 91 02 00 	mov    %cx,0x291de(%eax)
    SETGATE(idt[T_IRQ0 + IRQ_RTC],          0, CPU_GDT_KCODE, &Xirq_rtc,        0);
  101874:	c7 c1 38 25 10 00    	mov    $0x102538,%ecx
  10187a:	66 89 88 e0 91 02 00 	mov    %cx,0x291e0(%eax)
  101881:	66 c7 80 e2 91 02 00 	movw   $0x8,0x291e2(%eax)
  101888:	08 00 
  10188a:	0f b6 90 e4 91 02 00 	movzbl 0x291e4(%eax),%edx
  101891:	83 e2 e0             	and    $0xffffffe0,%edx
  101894:	88 90 e4 91 02 00    	mov    %dl,0x291e4(%eax)
  10189a:	c6 80 e4 91 02 00 00 	movb   $0x0,0x291e4(%eax)
  1018a1:	0f b6 90 e5 91 02 00 	movzbl 0x291e5(%eax),%edx
  1018a8:	83 e2 f0             	and    $0xfffffff0,%edx
  1018ab:	83 ca 0e             	or     $0xe,%edx
  1018ae:	88 90 e5 91 02 00    	mov    %dl,0x291e5(%eax)
  1018b4:	89 d3                	mov    %edx,%ebx
  1018b6:	83 e3 ef             	and    $0xffffffef,%ebx
  1018b9:	88 98 e5 91 02 00    	mov    %bl,0x291e5(%eax)
  1018bf:	83 e2 8f             	and    $0xffffff8f,%edx
  1018c2:	88 90 e5 91 02 00    	mov    %dl,0x291e5(%eax)
  1018c8:	83 ca 80             	or     $0xffffff80,%edx
  1018cb:	88 90 e5 91 02 00    	mov    %dl,0x291e5(%eax)
  1018d1:	c1 e9 10             	shr    $0x10,%ecx
  1018d4:	66 89 88 e6 91 02 00 	mov    %cx,0x291e6(%eax)
    SETGATE(idt[T_IRQ0 + 9],                0, CPU_GDT_KCODE, &Xirq9,           0);
  1018db:	c7 c1 3e 25 10 00    	mov    $0x10253e,%ecx
  1018e1:	66 89 88 e8 91 02 00 	mov    %cx,0x291e8(%eax)
  1018e8:	66 c7 80 ea 91 02 00 	movw   $0x8,0x291ea(%eax)
  1018ef:	08 00 
  1018f1:	0f b6 90 ec 91 02 00 	movzbl 0x291ec(%eax),%edx
  1018f8:	83 e2 e0             	and    $0xffffffe0,%edx
  1018fb:	88 90 ec 91 02 00    	mov    %dl,0x291ec(%eax)
  101901:	c6 80 ec 91 02 00 00 	movb   $0x0,0x291ec(%eax)
  101908:	0f b6 90 ed 91 02 00 	movzbl 0x291ed(%eax),%edx
  10190f:	83 e2 f0             	and    $0xfffffff0,%edx
  101912:	83 ca 0e             	or     $0xe,%edx
  101915:	88 90 ed 91 02 00    	mov    %dl,0x291ed(%eax)
  10191b:	89 d3                	mov    %edx,%ebx
  10191d:	83 e3 ef             	and    $0xffffffef,%ebx
  101920:	88 98 ed 91 02 00    	mov    %bl,0x291ed(%eax)
  101926:	83 e2 8f             	and    $0xffffff8f,%edx
  101929:	88 90 ed 91 02 00    	mov    %dl,0x291ed(%eax)
  10192f:	83 ca 80             	or     $0xffffff80,%edx
  101932:	88 90 ed 91 02 00    	mov    %dl,0x291ed(%eax)
  101938:	c1 e9 10             	shr    $0x10,%ecx
  10193b:	66 89 88 ee 91 02 00 	mov    %cx,0x291ee(%eax)
    SETGATE(idt[T_IRQ0 + 10],               0, CPU_GDT_KCODE, &Xirq10,          0);
  101942:	c7 c2 44 25 10 00    	mov    $0x102544,%edx
  101948:	66 89 90 f0 91 02 00 	mov    %dx,0x291f0(%eax)
  10194f:	66 c7 80 f2 91 02 00 	movw   $0x8,0x291f2(%eax)
  101956:	08 00 
  101958:	0f b6 90 f4 91 02 00 	movzbl 0x291f4(%eax),%edx
  10195f:	83 e2 e0             	and    $0xffffffe0,%edx
  101962:	88 90 f4 91 02 00    	mov    %dl,0x291f4(%eax)
  101968:	c6 80 f4 91 02 00 00 	movb   $0x0,0x291f4(%eax)
  10196f:	0f b6 90 f5 91 02 00 	movzbl 0x291f5(%eax),%edx
  101976:	83 e2 f0             	and    $0xfffffff0,%edx
  101979:	83 ca 0e             	or     $0xe,%edx
  10197c:	88 90 f5 91 02 00    	mov    %dl,0x291f5(%eax)
  101982:	89 d1                	mov    %edx,%ecx
  101984:	83 e1 ef             	and    $0xffffffef,%ecx
  101987:	88 88 f5 91 02 00    	mov    %cl,0x291f5(%eax)
  10198d:	83 e2 8f             	and    $0xffffff8f,%edx
  101990:	88 90 f5 91 02 00    	mov    %dl,0x291f5(%eax)
  101996:	83 ca 80             	or     $0xffffff80,%edx
  101999:	88 90 f5 91 02 00    	mov    %dl,0x291f5(%eax)
  10199f:	c7 c2 44 25 10 00    	mov    $0x102544,%edx
  1019a5:	c1 ea 10             	shr    $0x10,%edx
  1019a8:	66 89 90 f6 91 02 00 	mov    %dx,0x291f6(%eax)
    SETGATE(idt[T_IRQ0 + 11],               0, CPU_GDT_KCODE, &Xirq11,          0);
  1019af:	c7 c1 4a 25 10 00    	mov    $0x10254a,%ecx
  1019b5:	66 89 88 f8 91 02 00 	mov    %cx,0x291f8(%eax)
  1019bc:	66 c7 80 fa 91 02 00 	movw   $0x8,0x291fa(%eax)
  1019c3:	08 00 
  1019c5:	0f b6 90 fc 91 02 00 	movzbl 0x291fc(%eax),%edx
  1019cc:	83 e2 e0             	and    $0xffffffe0,%edx
  1019cf:	88 90 fc 91 02 00    	mov    %dl,0x291fc(%eax)
  1019d5:	c6 80 fc 91 02 00 00 	movb   $0x0,0x291fc(%eax)
  1019dc:	0f b6 90 fd 91 02 00 	movzbl 0x291fd(%eax),%edx
  1019e3:	83 e2 f0             	and    $0xfffffff0,%edx
  1019e6:	83 ca 0e             	or     $0xe,%edx
  1019e9:	88 90 fd 91 02 00    	mov    %dl,0x291fd(%eax)
  1019ef:	89 d3                	mov    %edx,%ebx
  1019f1:	83 e3 ef             	and    $0xffffffef,%ebx
  1019f4:	88 98 fd 91 02 00    	mov    %bl,0x291fd(%eax)
  1019fa:	83 e2 8f             	and    $0xffffff8f,%edx
  1019fd:	88 90 fd 91 02 00    	mov    %dl,0x291fd(%eax)
  101a03:	83 ca 80             	or     $0xffffff80,%edx
  101a06:	88 90 fd 91 02 00    	mov    %dl,0x291fd(%eax)
  101a0c:	c1 e9 10             	shr    $0x10,%ecx
  101a0f:	66 89 88 fe 91 02 00 	mov    %cx,0x291fe(%eax)
    SETGATE(idt[T_IRQ0 + IRQ_MOUSE],        0, CPU_GDT_KCODE, &Xirq_mouse,      0);
  101a16:	c7 c1 50 25 10 00    	mov    $0x102550,%ecx
  101a1c:	66 89 88 00 92 02 00 	mov    %cx,0x29200(%eax)
  101a23:	66 c7 80 02 92 02 00 	movw   $0x8,0x29202(%eax)
  101a2a:	08 00 
  101a2c:	0f b6 90 04 92 02 00 	movzbl 0x29204(%eax),%edx
  101a33:	83 e2 e0             	and    $0xffffffe0,%edx
  101a36:	88 90 04 92 02 00    	mov    %dl,0x29204(%eax)
  101a3c:	c6 80 04 92 02 00 00 	movb   $0x0,0x29204(%eax)
  101a43:	0f b6 90 05 92 02 00 	movzbl 0x29205(%eax),%edx
  101a4a:	83 e2 f0             	and    $0xfffffff0,%edx
  101a4d:	83 ca 0e             	or     $0xe,%edx
  101a50:	88 90 05 92 02 00    	mov    %dl,0x29205(%eax)
  101a56:	89 d3                	mov    %edx,%ebx
  101a58:	83 e3 ef             	and    $0xffffffef,%ebx
  101a5b:	88 98 05 92 02 00    	mov    %bl,0x29205(%eax)
  101a61:	83 e2 8f             	and    $0xffffff8f,%edx
  101a64:	88 90 05 92 02 00    	mov    %dl,0x29205(%eax)
  101a6a:	83 ca 80             	or     $0xffffff80,%edx
  101a6d:	88 90 05 92 02 00    	mov    %dl,0x29205(%eax)
  101a73:	c1 e9 10             	shr    $0x10,%ecx
  101a76:	66 89 88 06 92 02 00 	mov    %cx,0x29206(%eax)
    SETGATE(idt[T_IRQ0 + IRQ_COPROCESSOR],  0, CPU_GDT_KCODE, &Xirq_coproc,     0);
  101a7d:	c7 c1 56 25 10 00    	mov    $0x102556,%ecx
  101a83:	66 89 88 08 92 02 00 	mov    %cx,0x29208(%eax)
  101a8a:	66 c7 80 0a 92 02 00 	movw   $0x8,0x2920a(%eax)
  101a91:	08 00 
  101a93:	0f b6 90 0c 92 02 00 	movzbl 0x2920c(%eax),%edx
  101a9a:	83 e2 e0             	and    $0xffffffe0,%edx
  101a9d:	88 90 0c 92 02 00    	mov    %dl,0x2920c(%eax)
  101aa3:	c6 80 0c 92 02 00 00 	movb   $0x0,0x2920c(%eax)
  101aaa:	0f b6 90 0d 92 02 00 	movzbl 0x2920d(%eax),%edx
  101ab1:	83 e2 f0             	and    $0xfffffff0,%edx
  101ab4:	83 ca 0e             	or     $0xe,%edx
  101ab7:	88 90 0d 92 02 00    	mov    %dl,0x2920d(%eax)
  101abd:	89 d3                	mov    %edx,%ebx
  101abf:	83 e3 ef             	and    $0xffffffef,%ebx
  101ac2:	88 98 0d 92 02 00    	mov    %bl,0x2920d(%eax)
  101ac8:	83 e2 8f             	and    $0xffffff8f,%edx
  101acb:	88 90 0d 92 02 00    	mov    %dl,0x2920d(%eax)
  101ad1:	83 ca 80             	or     $0xffffff80,%edx
  101ad4:	88 90 0d 92 02 00    	mov    %dl,0x2920d(%eax)
  101ada:	c1 e9 10             	shr    $0x10,%ecx
  101add:	66 89 88 0e 92 02 00 	mov    %cx,0x2920e(%eax)
    SETGATE(idt[T_IRQ0 + IRQ_IDE1],         0, CPU_GDT_KCODE, &Xirq_ide1,       0);
  101ae4:	c7 c1 5c 25 10 00    	mov    $0x10255c,%ecx
  101aea:	66 89 88 10 92 02 00 	mov    %cx,0x29210(%eax)
  101af1:	66 c7 80 12 92 02 00 	movw   $0x8,0x29212(%eax)
  101af8:	08 00 
  101afa:	0f b6 90 14 92 02 00 	movzbl 0x29214(%eax),%edx
  101b01:	83 e2 e0             	and    $0xffffffe0,%edx
  101b04:	88 90 14 92 02 00    	mov    %dl,0x29214(%eax)
  101b0a:	c6 80 14 92 02 00 00 	movb   $0x0,0x29214(%eax)
  101b11:	0f b6 90 15 92 02 00 	movzbl 0x29215(%eax),%edx
  101b18:	83 e2 f0             	and    $0xfffffff0,%edx
  101b1b:	83 ca 0e             	or     $0xe,%edx
  101b1e:	88 90 15 92 02 00    	mov    %dl,0x29215(%eax)
  101b24:	89 d3                	mov    %edx,%ebx
  101b26:	83 e3 ef             	and    $0xffffffef,%ebx
  101b29:	88 98 15 92 02 00    	mov    %bl,0x29215(%eax)
  101b2f:	83 e2 8f             	and    $0xffffff8f,%edx
  101b32:	88 90 15 92 02 00    	mov    %dl,0x29215(%eax)
  101b38:	83 ca 80             	or     $0xffffff80,%edx
  101b3b:	88 90 15 92 02 00    	mov    %dl,0x29215(%eax)
  101b41:	c1 e9 10             	shr    $0x10,%ecx
  101b44:	66 89 88 16 92 02 00 	mov    %cx,0x29216(%eax)
    SETGATE(idt[T_IRQ0 + IRQ_IDE2],         0, CPU_GDT_KCODE, &Xirq_ide2,       0);
  101b4b:	c7 c1 62 25 10 00    	mov    $0x102562,%ecx
  101b51:	66 89 88 18 92 02 00 	mov    %cx,0x29218(%eax)
  101b58:	66 c7 80 1a 92 02 00 	movw   $0x8,0x2921a(%eax)
  101b5f:	08 00 
  101b61:	0f b6 90 1c 92 02 00 	movzbl 0x2921c(%eax),%edx
  101b68:	83 e2 e0             	and    $0xffffffe0,%edx
  101b6b:	88 90 1c 92 02 00    	mov    %dl,0x2921c(%eax)
  101b71:	c6 80 1c 92 02 00 00 	movb   $0x0,0x2921c(%eax)
  101b78:	0f b6 90 1d 92 02 00 	movzbl 0x2921d(%eax),%edx
  101b7f:	83 e2 f0             	and    $0xfffffff0,%edx
  101b82:	83 ca 0e             	or     $0xe,%edx
  101b85:	88 90 1d 92 02 00    	mov    %dl,0x2921d(%eax)
  101b8b:	89 d3                	mov    %edx,%ebx
  101b8d:	83 e3 ef             	and    $0xffffffef,%ebx
  101b90:	88 98 1d 92 02 00    	mov    %bl,0x2921d(%eax)
  101b96:	83 e2 8f             	and    $0xffffff8f,%edx
  101b99:	88 90 1d 92 02 00    	mov    %dl,0x2921d(%eax)
  101b9f:	83 ca 80             	or     $0xffffff80,%edx
  101ba2:	88 90 1d 92 02 00    	mov    %dl,0x2921d(%eax)
  101ba8:	c1 e9 10             	shr    $0x10,%ecx
  101bab:	66 89 88 1e 92 02 00 	mov    %cx,0x2921e(%eax)

    // Use DPL=3 here because system calls are explicitly invoked
    // by the user process (with "int $T_SYSCALL").
    SETGATE(idt[T_SYSCALL], 0, CPU_GDT_KCODE, &Xsyscall, 3);
  101bb2:	c7 c1 68 25 10 00    	mov    $0x102568,%ecx
  101bb8:	66 89 88 20 92 02 00 	mov    %cx,0x29220(%eax)
  101bbf:	66 c7 80 22 92 02 00 	movw   $0x8,0x29222(%eax)
  101bc6:	08 00 
  101bc8:	0f b6 90 24 92 02 00 	movzbl 0x29224(%eax),%edx
  101bcf:	83 e2 e0             	and    $0xffffffe0,%edx
  101bd2:	88 90 24 92 02 00    	mov    %dl,0x29224(%eax)
  101bd8:	c6 80 24 92 02 00 00 	movb   $0x0,0x29224(%eax)
  101bdf:	0f b6 90 25 92 02 00 	movzbl 0x29225(%eax),%edx
  101be6:	83 e2 f0             	and    $0xfffffff0,%edx
  101be9:	83 ca 0e             	or     $0xe,%edx
  101bec:	88 90 25 92 02 00    	mov    %dl,0x29225(%eax)
  101bf2:	83 e2 ef             	and    $0xffffffef,%edx
  101bf5:	88 90 25 92 02 00    	mov    %dl,0x29225(%eax)
  101bfb:	89 d3                	mov    %edx,%ebx
  101bfd:	83 cb 60             	or     $0x60,%ebx
  101c00:	88 98 25 92 02 00    	mov    %bl,0x29225(%eax)
  101c06:	83 ca e0             	or     $0xffffffe0,%edx
  101c09:	88 90 25 92 02 00    	mov    %dl,0x29225(%eax)
  101c0f:	c1 e9 10             	shr    $0x10,%ecx
  101c12:	66 89 88 26 92 02 00 	mov    %cx,0x29226(%eax)

    /* default */
    SETGATE(idt[T_DEFAULT], 0, CPU_GDT_KCODE, &Xdefault, 0);
  101c19:	c7 c1 6e 25 10 00    	mov    $0x10256e,%ecx
  101c1f:	66 89 88 90 98 02 00 	mov    %cx,0x29890(%eax)
  101c26:	66 c7 80 92 98 02 00 	movw   $0x8,0x29892(%eax)
  101c2d:	08 00 
  101c2f:	0f b6 90 94 98 02 00 	movzbl 0x29894(%eax),%edx
  101c36:	83 e2 e0             	and    $0xffffffe0,%edx
  101c39:	88 90 94 98 02 00    	mov    %dl,0x29894(%eax)
  101c3f:	c6 80 94 98 02 00 00 	movb   $0x0,0x29894(%eax)
  101c46:	0f b6 90 95 98 02 00 	movzbl 0x29895(%eax),%edx
  101c4d:	83 e2 f0             	and    $0xfffffff0,%edx
  101c50:	83 ca 0e             	or     $0xe,%edx
  101c53:	88 90 95 98 02 00    	mov    %dl,0x29895(%eax)
  101c59:	89 d3                	mov    %edx,%ebx
  101c5b:	83 e3 ef             	and    $0xffffffef,%ebx
  101c5e:	88 98 95 98 02 00    	mov    %bl,0x29895(%eax)
  101c64:	83 e2 8f             	and    $0xffffff8f,%edx
  101c67:	88 90 95 98 02 00    	mov    %dl,0x29895(%eax)
  101c6d:	83 ca 80             	or     $0xffffff80,%edx
  101c70:	88 90 95 98 02 00    	mov    %dl,0x29895(%eax)
  101c76:	c1 e9 10             	shr    $0x10,%ecx
  101c79:	66 89 88 96 98 02 00 	mov    %cx,0x29896(%eax)

    asm volatile ("lidt %0" :: "m" (idt_pd));
  101c80:	0f 01 98 20 03 00 00 	lidtl  0x320(%eax)
}
  101c87:	5b                   	pop    %ebx
  101c88:	5e                   	pop    %esi
  101c89:	5f                   	pop    %edi
  101c8a:	5d                   	pop    %ebp
  101c8b:	c3                   	ret    

00101c8c <intr_init>:

void intr_init(void)
{
  101c8c:	53                   	push   %ebx
  101c8d:	83 ec 08             	sub    $0x8,%esp
  101c90:	e8 77 e6 ff ff       	call   10030c <__x86.get_pc_thunk.bx>
  101c95:	81 c3 6b 93 00 00    	add    $0x936b,%ebx
    if (intr_inited == TRUE)
  101c9b:	0f b6 83 a0 98 02 00 	movzbl 0x298a0(%ebx),%eax
  101ca2:	3c 01                	cmp    $0x1,%al
  101ca4:	74 11                	je     101cb7 <intr_init+0x2b>
        return;

    pic_init();
  101ca6:	e8 89 00 00 00       	call   101d34 <pic_init>
    intr_init_idt();
  101cab:	e8 20 f1 ff ff       	call   100dd0 <intr_init_idt>
    intr_inited = TRUE;
  101cb0:	c6 83 a0 98 02 00 01 	movb   $0x1,0x298a0(%ebx)
}
  101cb7:	83 c4 08             	add    $0x8,%esp
  101cba:	5b                   	pop    %ebx
  101cbb:	c3                   	ret    

00101cbc <intr_enable>:

void intr_enable(uint8_t irq)
{
  101cbc:	53                   	push   %ebx
  101cbd:	83 ec 08             	sub    $0x8,%esp
  101cc0:	e8 47 e6 ff ff       	call   10030c <__x86.get_pc_thunk.bx>
  101cc5:	81 c3 3b 93 00 00    	add    $0x933b,%ebx
  101ccb:	8b 44 24 10          	mov    0x10(%esp),%eax
    if (irq >= 16)
  101ccf:	3c 0f                	cmp    $0xf,%al
  101cd1:	76 05                	jbe    101cd8 <intr_enable+0x1c>
        return;
    pic_enable(irq);
}
  101cd3:	83 c4 08             	add    $0x8,%esp
  101cd6:	5b                   	pop    %ebx
  101cd7:	c3                   	ret    
    pic_enable(irq);
  101cd8:	83 ec 0c             	sub    $0xc,%esp
  101cdb:	0f b6 c0             	movzbl %al,%eax
  101cde:	50                   	push   %eax
  101cdf:	e8 a0 01 00 00       	call   101e84 <pic_enable>
  101ce4:	83 c4 10             	add    $0x10,%esp
  101ce7:	eb ea                	jmp    101cd3 <intr_enable+0x17>

00101ce9 <intr_eoi>:

void intr_eoi(void)
{
  101ce9:	53                   	push   %ebx
  101cea:	83 ec 08             	sub    $0x8,%esp
  101ced:	e8 1a e6 ff ff       	call   10030c <__x86.get_pc_thunk.bx>
  101cf2:	81 c3 0e 93 00 00    	add    $0x930e,%ebx
    pic_eoi();
  101cf8:	e8 b6 01 00 00       	call   101eb3 <pic_eoi>
}
  101cfd:	83 c4 08             	add    $0x8,%esp
  101d00:	5b                   	pop    %ebx
  101d01:	c3                   	ret    

00101d02 <intr_local_enable>:

void intr_local_enable(void)
{
  101d02:	53                   	push   %ebx
  101d03:	83 ec 08             	sub    $0x8,%esp
  101d06:	e8 01 e6 ff ff       	call   10030c <__x86.get_pc_thunk.bx>
  101d0b:	81 c3 f5 92 00 00    	add    $0x92f5,%ebx
    sti();
  101d11:	e8 94 17 00 00       	call   1034aa <sti>
}
  101d16:	83 c4 08             	add    $0x8,%esp
  101d19:	5b                   	pop    %ebx
  101d1a:	c3                   	ret    

00101d1b <intr_local_disable>:

void intr_local_disable(void)
{
  101d1b:	53                   	push   %ebx
  101d1c:	83 ec 08             	sub    $0x8,%esp
  101d1f:	e8 e8 e5 ff ff       	call   10030c <__x86.get_pc_thunk.bx>
  101d24:	81 c3 dc 92 00 00    	add    $0x92dc,%ebx
    cli();
  101d2a:	e8 79 17 00 00       	call   1034a8 <cli>
}
  101d2f:	83 c4 08             	add    $0x8,%esp
  101d32:	5b                   	pop    %ebx
  101d33:	c3                   	ret    

00101d34 <pic_init>:
static uint16_t irqmask = 0xFFFF & ~(1 << IRQ_SLAVE);
static bool pic_inited = FALSE;

/* Initialize the 8259A interrupt controllers. */
void pic_init(void)
{
  101d34:	53                   	push   %ebx
  101d35:	83 ec 08             	sub    $0x8,%esp
  101d38:	e8 cf e5 ff ff       	call   10030c <__x86.get_pc_thunk.bx>
  101d3d:	81 c3 c3 92 00 00    	add    $0x92c3,%ebx
    if (pic_inited == TRUE)  // only do once on bootstrap CPU
  101d43:	80 bb a1 98 02 00 01 	cmpb   $0x1,0x298a1(%ebx)
  101d4a:	0f 84 ee 00 00 00    	je     101e3e <pic_init+0x10a>
        return;
    pic_inited = TRUE;
  101d50:	c6 83 a1 98 02 00 01 	movb   $0x1,0x298a1(%ebx)

    /* mask all interrupts */
    outb(IO_PIC1 + 1, 0xff);
  101d57:	83 ec 08             	sub    $0x8,%esp
  101d5a:	68 ff 00 00 00       	push   $0xff
  101d5f:	6a 21                	push   $0x21
  101d61:	e8 0a 18 00 00       	call   103570 <outb>
    outb(IO_PIC2 + 1, 0xff);
  101d66:	83 c4 08             	add    $0x8,%esp
  101d69:	68 ff 00 00 00       	push   $0xff
  101d6e:	68 a1 00 00 00       	push   $0xa1
  101d73:	e8 f8 17 00 00       	call   103570 <outb>

    // ICW1:  0001g0hi
    //    g:  0 = edge triggering, 1 = level triggering
    //    h:  0 = cascaded PICs, 1 = master only
    //    i:  0 = no ICW4, 1 = ICW4 required
    outb(IO_PIC1, 0x11);
  101d78:	83 c4 08             	add    $0x8,%esp
  101d7b:	6a 11                	push   $0x11
  101d7d:	6a 20                	push   $0x20
  101d7f:	e8 ec 17 00 00       	call   103570 <outb>

    // ICW2:  Vector offset
    outb(IO_PIC1 + 1, T_IRQ0);
  101d84:	83 c4 08             	add    $0x8,%esp
  101d87:	6a 20                	push   $0x20
  101d89:	6a 21                	push   $0x21
  101d8b:	e8 e0 17 00 00       	call   103570 <outb>

    // ICW3:  bit mask of IR lines connected to slave PICs (master PIC),
    //        3-bit No of IR line at which slave connects to master (slave PIC).
    outb(IO_PIC1 + 1, 1 << IRQ_SLAVE);
  101d90:	83 c4 08             	add    $0x8,%esp
  101d93:	6a 04                	push   $0x4
  101d95:	6a 21                	push   $0x21
  101d97:	e8 d4 17 00 00       	call   103570 <outb>
    //    m:  0 = slave PIC, 1 = master PIC
    //        (ignored when b is 0, as the master/slave role
    //        can be hardwired).
    //    a:  1 = Automatic EOI mode
    //    p:  0 = MCS-80/85 mode, 1 = intel x86 mode
    outb(IO_PIC1 + 1, 0x1);
  101d9c:	83 c4 08             	add    $0x8,%esp
  101d9f:	6a 01                	push   $0x1
  101da1:	6a 21                	push   $0x21
  101da3:	e8 c8 17 00 00       	call   103570 <outb>

    // Set up slave (8259A-2)
    outb(IO_PIC2, 0x11);            // ICW1
  101da8:	83 c4 08             	add    $0x8,%esp
  101dab:	6a 11                	push   $0x11
  101dad:	68 a0 00 00 00       	push   $0xa0
  101db2:	e8 b9 17 00 00       	call   103570 <outb>
    outb(IO_PIC2 + 1, T_IRQ0 + 8);  // ICW2
  101db7:	83 c4 08             	add    $0x8,%esp
  101dba:	6a 28                	push   $0x28
  101dbc:	68 a1 00 00 00       	push   $0xa1
  101dc1:	e8 aa 17 00 00       	call   103570 <outb>
    outb(IO_PIC2 + 1, IRQ_SLAVE);   // ICW3
  101dc6:	83 c4 08             	add    $0x8,%esp
  101dc9:	6a 02                	push   $0x2
  101dcb:	68 a1 00 00 00       	push   $0xa1
  101dd0:	e8 9b 17 00 00       	call   103570 <outb>
    // NB Automatic EOI mode doesn't tend to work on the slave.
    // Linux source code says it's "to be investigated".
    outb(IO_PIC2 + 1, 0x01);        // ICW4
  101dd5:	83 c4 08             	add    $0x8,%esp
  101dd8:	6a 01                	push   $0x1
  101dda:	68 a1 00 00 00       	push   $0xa1
  101ddf:	e8 8c 17 00 00       	call   103570 <outb>

    // OCW3:  0ef01prs
    //   ef:  0x = NOP, 10 = clear specific mask, 11 = set specific mask
    //    p:  0 = no polling, 1 = polling mode
    //   rs:  0x = NOP, 10 = read IRR, 11 = read ISR
    outb(IO_PIC1, 0x68);  /* clear specific mask */
  101de4:	83 c4 08             	add    $0x8,%esp
  101de7:	6a 68                	push   $0x68
  101de9:	6a 20                	push   $0x20
  101deb:	e8 80 17 00 00       	call   103570 <outb>
    outb(IO_PIC1, 0x0a);  /* read IRR by default */
  101df0:	83 c4 08             	add    $0x8,%esp
  101df3:	6a 0a                	push   $0xa
  101df5:	6a 20                	push   $0x20
  101df7:	e8 74 17 00 00       	call   103570 <outb>

    outb(IO_PIC2, 0x68);  /* OCW3 */
  101dfc:	83 c4 08             	add    $0x8,%esp
  101dff:	6a 68                	push   $0x68
  101e01:	68 a0 00 00 00       	push   $0xa0
  101e06:	e8 65 17 00 00       	call   103570 <outb>
    outb(IO_PIC2, 0x0a);  /* OCW3 */
  101e0b:	83 c4 08             	add    $0x8,%esp
  101e0e:	6a 0a                	push   $0xa
  101e10:	68 a0 00 00 00       	push   $0xa0
  101e15:	e8 56 17 00 00       	call   103570 <outb>

    // mask all interrupts
    outb(IO_PIC1 + 1, 0xFF);
  101e1a:	83 c4 08             	add    $0x8,%esp
  101e1d:	68 ff 00 00 00       	push   $0xff
  101e22:	6a 21                	push   $0x21
  101e24:	e8 47 17 00 00       	call   103570 <outb>
    outb(IO_PIC2 + 1, 0xFF);
  101e29:	83 c4 08             	add    $0x8,%esp
  101e2c:	68 ff 00 00 00       	push   $0xff
  101e31:	68 a1 00 00 00       	push   $0xa1
  101e36:	e8 35 17 00 00       	call   103570 <outb>
  101e3b:	83 c4 10             	add    $0x10,%esp
}
  101e3e:	83 c4 08             	add    $0x8,%esp
  101e41:	5b                   	pop    %ebx
  101e42:	c3                   	ret    

00101e43 <pic_setmask>:

void pic_setmask(uint16_t mask)
{
  101e43:	56                   	push   %esi
  101e44:	53                   	push   %ebx
  101e45:	83 ec 0c             	sub    $0xc,%esp
  101e48:	e8 bf e4 ff ff       	call   10030c <__x86.get_pc_thunk.bx>
  101e4d:	81 c3 b3 91 00 00    	add    $0x91b3,%ebx
  101e53:	8b 74 24 18          	mov    0x18(%esp),%esi
    irqmask = mask;
  101e57:	66 89 b3 26 03 00 00 	mov    %si,0x326(%ebx)
    outb(IO_PIC1 + 1, (char) mask);
  101e5e:	89 f0                	mov    %esi,%eax
  101e60:	0f b6 c0             	movzbl %al,%eax
  101e63:	50                   	push   %eax
  101e64:	6a 21                	push   $0x21
  101e66:	e8 05 17 00 00       	call   103570 <outb>
    outb(IO_PIC2 + 1, (char) (mask >> 8));
  101e6b:	83 c4 08             	add    $0x8,%esp
  101e6e:	89 f0                	mov    %esi,%eax
  101e70:	0f b6 f4             	movzbl %ah,%esi
  101e73:	56                   	push   %esi
  101e74:	68 a1 00 00 00       	push   $0xa1
  101e79:	e8 f2 16 00 00       	call   103570 <outb>
}
  101e7e:	83 c4 14             	add    $0x14,%esp
  101e81:	5b                   	pop    %ebx
  101e82:	5e                   	pop    %esi
  101e83:	c3                   	ret    

00101e84 <pic_enable>:

void pic_enable(int irq)
{
  101e84:	83 ec 18             	sub    $0x18,%esp
  101e87:	e8 40 ef ff ff       	call   100dcc <__x86.get_pc_thunk.dx>
  101e8c:	81 c2 74 91 00 00    	add    $0x9174,%edx
    pic_setmask(irqmask & ~(1 << irq));
  101e92:	8b 4c 24 1c          	mov    0x1c(%esp),%ecx
  101e96:	b8 01 00 00 00       	mov    $0x1,%eax
  101e9b:	d3 e0                	shl    %cl,%eax
  101e9d:	f7 d0                	not    %eax
  101e9f:	66 23 82 26 03 00 00 	and    0x326(%edx),%ax
  101ea6:	0f b7 c0             	movzwl %ax,%eax
  101ea9:	50                   	push   %eax
  101eaa:	e8 94 ff ff ff       	call   101e43 <pic_setmask>
}
  101eaf:	83 c4 1c             	add    $0x1c,%esp
  101eb2:	c3                   	ret    

00101eb3 <pic_eoi>:

void pic_eoi(void)
{
  101eb3:	53                   	push   %ebx
  101eb4:	83 ec 10             	sub    $0x10,%esp
  101eb7:	e8 50 e4 ff ff       	call   10030c <__x86.get_pc_thunk.bx>
  101ebc:	81 c3 44 91 00 00    	add    $0x9144,%ebx
    // OCW2: rse00xxx
    //   r: rotate
    //   s: specific
    //   e: end-of-interrupt
    // xxx: specific interrupt line
    outb(IO_PIC1, 0x20);
  101ec2:	6a 20                	push   $0x20
  101ec4:	6a 20                	push   $0x20
  101ec6:	e8 a5 16 00 00       	call   103570 <outb>
    outb(IO_PIC2, 0x20);
  101ecb:	83 c4 08             	add    $0x8,%esp
  101ece:	6a 20                	push   $0x20
  101ed0:	68 a0 00 00 00       	push   $0xa0
  101ed5:	e8 96 16 00 00       	call   103570 <outb>
}
  101eda:	83 c4 18             	add    $0x18,%esp
  101edd:	5b                   	pop    %ebx
  101ede:	c3                   	ret    

00101edf <pic_reset>:

void pic_reset(void)
{
  101edf:	53                   	push   %ebx
  101ee0:	83 ec 10             	sub    $0x10,%esp
  101ee3:	e8 24 e4 ff ff       	call   10030c <__x86.get_pc_thunk.bx>
  101ee8:	81 c3 18 91 00 00    	add    $0x9118,%ebx
    // mask all interrupts
    outb(IO_PIC1 + 1, 0x00);
  101eee:	6a 00                	push   $0x0
  101ef0:	6a 21                	push   $0x21
  101ef2:	e8 79 16 00 00       	call   103570 <outb>
    outb(IO_PIC2 + 1, 0x00);
  101ef7:	83 c4 08             	add    $0x8,%esp
  101efa:	6a 00                	push   $0x0
  101efc:	68 a1 00 00 00       	push   $0xa1
  101f01:	e8 6a 16 00 00       	call   103570 <outb>

    // ICW1:  0001g0hi
    //    g:  0 = edge triggering, 1 = level triggering
    //    h:  0 = cascaded PICs, 1 = master only
    //    i:  0 = no ICW4, 1 = ICW4 required
    outb(IO_PIC1, 0x11);
  101f06:	83 c4 08             	add    $0x8,%esp
  101f09:	6a 11                	push   $0x11
  101f0b:	6a 20                	push   $0x20
  101f0d:	e8 5e 16 00 00       	call   103570 <outb>

    // ICW2:  Vector offset
    outb(IO_PIC1 + 1, T_IRQ0);
  101f12:	83 c4 08             	add    $0x8,%esp
  101f15:	6a 20                	push   $0x20
  101f17:	6a 21                	push   $0x21
  101f19:	e8 52 16 00 00       	call   103570 <outb>

    // ICW3:  bit mask of IR lines connected to slave PICs (master PIC),
    //        3-bit No of IR line at which slave connects to master(slave PIC).
    outb(IO_PIC1 + 1, 1 << IRQ_SLAVE);
  101f1e:	83 c4 08             	add    $0x8,%esp
  101f21:	6a 04                	push   $0x4
  101f23:	6a 21                	push   $0x21
  101f25:	e8 46 16 00 00       	call   103570 <outb>
    //    m:  0 = slave PIC, 1 = master PIC
    //        (ignored when b is 0, as the master/slave role
    //        can be hardwired).
    //    a:  1 = Automatic EOI mode
    //    p:  0 = MCS-80/85 mode, 1 = intel x86 mode
    outb(IO_PIC1 + 1, 0x3);
  101f2a:	83 c4 08             	add    $0x8,%esp
  101f2d:	6a 03                	push   $0x3
  101f2f:	6a 21                	push   $0x21
  101f31:	e8 3a 16 00 00       	call   103570 <outb>

    // Set up slave (8259A-2)
    outb(IO_PIC2, 0x11);            // ICW1
  101f36:	83 c4 08             	add    $0x8,%esp
  101f39:	6a 11                	push   $0x11
  101f3b:	68 a0 00 00 00       	push   $0xa0
  101f40:	e8 2b 16 00 00       	call   103570 <outb>
    outb(IO_PIC2 + 1, T_IRQ0 + 8);  // ICW2
  101f45:	83 c4 08             	add    $0x8,%esp
  101f48:	6a 28                	push   $0x28
  101f4a:	68 a1 00 00 00       	push   $0xa1
  101f4f:	e8 1c 16 00 00       	call   103570 <outb>
    outb(IO_PIC2 + 1, IRQ_SLAVE);   // ICW3
  101f54:	83 c4 08             	add    $0x8,%esp
  101f57:	6a 02                	push   $0x2
  101f59:	68 a1 00 00 00       	push   $0xa1
  101f5e:	e8 0d 16 00 00       	call   103570 <outb>
    // NB Automatic EOI mode doesn't tend to work on the slave.
    // Linux source code says it's "to be investigated".
    outb(IO_PIC2 + 1, 0x01);        // ICW4
  101f63:	83 c4 08             	add    $0x8,%esp
  101f66:	6a 01                	push   $0x1
  101f68:	68 a1 00 00 00       	push   $0xa1
  101f6d:	e8 fe 15 00 00       	call   103570 <outb>

    // OCW3:  0ef01prs
    //   ef:  0x = NOP, 10 = clear specific mask, 11 = set specific mask
    //    p:  0 = no polling, 1 = polling mode
    //   rs:  0x = NOP, 10 = read IRR, 11 = read ISR
    outb(IO_PIC1, 0x68);  /* clear specific mask */
  101f72:	83 c4 08             	add    $0x8,%esp
  101f75:	6a 68                	push   $0x68
  101f77:	6a 20                	push   $0x20
  101f79:	e8 f2 15 00 00       	call   103570 <outb>
    outb(IO_PIC1, 0x0a);  /* read IRR by default */
  101f7e:	83 c4 08             	add    $0x8,%esp
  101f81:	6a 0a                	push   $0xa
  101f83:	6a 20                	push   $0x20
  101f85:	e8 e6 15 00 00       	call   103570 <outb>

    outb(IO_PIC2, 0x68);  /* OCW3 */
  101f8a:	83 c4 08             	add    $0x8,%esp
  101f8d:	6a 68                	push   $0x68
  101f8f:	68 a0 00 00 00       	push   $0xa0
  101f94:	e8 d7 15 00 00       	call   103570 <outb>
    outb(IO_PIC2, 0x0a);  /* OCW3 */
  101f99:	83 c4 08             	add    $0x8,%esp
  101f9c:	6a 0a                	push   $0xa
  101f9e:	68 a0 00 00 00       	push   $0xa0
  101fa3:	e8 c8 15 00 00       	call   103570 <outb>
}
  101fa8:	83 c4 18             	add    $0x18,%esp
  101fab:	5b                   	pop    %ebx
  101fac:	c3                   	ret    

00101fad <timer_hw_init>:
#define TIMER_16BIT   0x30  /* r/w counter 16 bits, LSB first */

// Initialize the programmable interval timer.

void timer_hw_init(void)
{
  101fad:	53                   	push   %ebx
  101fae:	83 ec 10             	sub    $0x10,%esp
  101fb1:	e8 56 e3 ff ff       	call   10030c <__x86.get_pc_thunk.bx>
  101fb6:	81 c3 4a 90 00 00    	add    $0x904a,%ebx
    outb(PIT_CONTROL, TIMER_SEL0 | TIMER_RATEGEN | TIMER_16BIT);
  101fbc:	6a 34                	push   $0x34
  101fbe:	6a 43                	push   $0x43
  101fc0:	e8 ab 15 00 00       	call   103570 <outb>
    outb(PIT_CHANNEL0, LOW8(LATCH));
  101fc5:	83 c4 08             	add    $0x8,%esp
  101fc8:	68 9c 00 00 00       	push   $0x9c
  101fcd:	6a 40                	push   $0x40
  101fcf:	e8 9c 15 00 00       	call   103570 <outb>
    outb(PIT_CHANNEL0, HIGH8(LATCH));
  101fd4:	83 c4 08             	add    $0x8,%esp
  101fd7:	6a 2e                	push   $0x2e
  101fd9:	6a 40                	push   $0x40
  101fdb:	e8 90 15 00 00       	call   103570 <outb>
}
  101fe0:	83 c4 18             	add    $0x18,%esp
  101fe3:	5b                   	pop    %ebx
  101fe4:	c3                   	ret    

00101fe5 <tsc_calibrate>:

/*
 * XXX: From Linux 3.2.6: arch/x86/kernel/tsc.c: pit_calibrate_tsc()
 */
static uint64_t tsc_calibrate(uint32_t latch, uint32_t ms, int loopmin)
{
  101fe5:	55                   	push   %ebp
  101fe6:	57                   	push   %edi
  101fe7:	56                   	push   %esi
  101fe8:	53                   	push   %ebx
  101fe9:	83 ec 48             	sub    $0x48,%esp
  101fec:	e8 21 e5 ff ff       	call   100512 <__x86.get_pc_thunk.si>
  101ff1:	81 c6 0f 90 00 00    	add    $0x900f,%esi
  101ff7:	89 c7                	mov    %eax,%edi
  101ff9:	89 54 24 38          	mov    %edx,0x38(%esp)
  101ffd:	89 4c 24 34          	mov    %ecx,0x34(%esp)
    uint64_t tsc, t1, t2, delta, tscmin, tscmax;;
    int pitcnt;

    /* Set the Gate high, disable speaker */
    outb(0x61, (inb(0x61) & ~0x02) | 0x01);
  102001:	6a 61                	push   $0x61
  102003:	89 f3                	mov    %esi,%ebx
  102005:	e8 4e 15 00 00       	call   103558 <inb>
  10200a:	83 e0 fc             	and    $0xfffffffc,%eax
  10200d:	83 c8 01             	or     $0x1,%eax
  102010:	83 c4 08             	add    $0x8,%esp
  102013:	0f b6 c0             	movzbl %al,%eax
  102016:	50                   	push   %eax
  102017:	6a 61                	push   $0x61
  102019:	e8 52 15 00 00       	call   103570 <outb>
    /*
     * Setup CTC channel 2 for mode 0, (interrupt on terminal
     * count mode), binary count. Set the latch register to 50ms
     * (LSB then MSB) to begin countdown.
     */
    outb(0x43, 0xb0);
  10201e:	83 c4 08             	add    $0x8,%esp
  102021:	68 b0 00 00 00       	push   $0xb0
  102026:	6a 43                	push   $0x43
  102028:	e8 43 15 00 00       	call   103570 <outb>
    outb(0x42, latch & 0xff);
  10202d:	83 c4 08             	add    $0x8,%esp
  102030:	89 f8                	mov    %edi,%eax
  102032:	0f b6 c0             	movzbl %al,%eax
  102035:	50                   	push   %eax
  102036:	6a 42                	push   $0x42
  102038:	e8 33 15 00 00       	call   103570 <outb>
    outb(0x42, latch >> 8);
  10203d:	83 c4 08             	add    $0x8,%esp
  102040:	89 f8                	mov    %edi,%eax
  102042:	0f b6 fc             	movzbl %ah,%edi
  102045:	57                   	push   %edi
  102046:	6a 42                	push   $0x42
  102048:	e8 23 15 00 00       	call   103570 <outb>

    tsc = t1 = t2 = rdtsc();
  10204d:	e8 73 14 00 00       	call   1034c5 <rdtsc>
  102052:	89 44 24 30          	mov    %eax,0x30(%esp)
  102056:	89 54 24 34          	mov    %edx,0x34(%esp)

    pitcnt = 0;
    tscmax = 0;
    tscmin = ~(uint64_t) 0x0;
    while ((inb(0x61) & 0x20) == 0) {
  10205a:	83 c4 10             	add    $0x10,%esp
    tsc = t1 = t2 = rdtsc();
  10205d:	89 44 24 18          	mov    %eax,0x18(%esp)
  102061:	89 54 24 1c          	mov    %edx,0x1c(%esp)
    pitcnt = 0;
  102065:	bf 00 00 00 00       	mov    $0x0,%edi
    tscmax = 0;
  10206a:	c7 44 24 10 00 00 00 	movl   $0x0,0x10(%esp)
  102071:	00 
  102072:	c7 44 24 14 00 00 00 	movl   $0x0,0x14(%esp)
  102079:	00 
    tscmin = ~(uint64_t) 0x0;
  10207a:	c7 44 24 08 ff ff ff 	movl   $0xffffffff,0x8(%esp)
  102081:	ff 
  102082:	c7 44 24 0c ff ff ff 	movl   $0xffffffff,0xc(%esp)
  102089:	ff 
    while ((inb(0x61) & 0x20) == 0) {
  10208a:	eb 0b                	jmp    102097 <tsc_calibrate+0xb2>
        tsc = t2;
        if (delta < tscmin)
            tscmin = delta;
        if (delta > tscmax)
            tscmax = delta;
        pitcnt++;
  10208c:	83 c7 01             	add    $0x1,%edi
        tsc = t2;
  10208f:	89 4c 24 18          	mov    %ecx,0x18(%esp)
  102093:	89 5c 24 1c          	mov    %ebx,0x1c(%esp)
    while ((inb(0x61) & 0x20) == 0) {
  102097:	83 ec 0c             	sub    $0xc,%esp
  10209a:	6a 61                	push   $0x61
  10209c:	89 f3                	mov    %esi,%ebx
  10209e:	e8 b5 14 00 00       	call   103558 <inb>
  1020a3:	83 c4 10             	add    $0x10,%esp
  1020a6:	a8 20                	test   $0x20,%al
  1020a8:	75 3d                	jne    1020e7 <tsc_calibrate+0x102>
        t2 = rdtsc();
  1020aa:	89 f3                	mov    %esi,%ebx
  1020ac:	e8 14 14 00 00       	call   1034c5 <rdtsc>
  1020b1:	89 c1                	mov    %eax,%ecx
  1020b3:	89 d3                	mov    %edx,%ebx
        delta = t2 - tsc;
  1020b5:	2b 44 24 18          	sub    0x18(%esp),%eax
  1020b9:	1b 54 24 1c          	sbb    0x1c(%esp),%edx
        if (delta < tscmin)
  1020bd:	3b 44 24 08          	cmp    0x8(%esp),%eax
  1020c1:	89 d5                	mov    %edx,%ebp
  1020c3:	1b 6c 24 0c          	sbb    0xc(%esp),%ebp
  1020c7:	73 08                	jae    1020d1 <tsc_calibrate+0xec>
            tscmin = delta;
  1020c9:	89 44 24 08          	mov    %eax,0x8(%esp)
  1020cd:	89 54 24 0c          	mov    %edx,0xc(%esp)
        if (delta > tscmax)
  1020d1:	39 44 24 10          	cmp    %eax,0x10(%esp)
  1020d5:	8b 6c 24 14          	mov    0x14(%esp),%ebp
  1020d9:	19 d5                	sbb    %edx,%ebp
  1020db:	73 af                	jae    10208c <tsc_calibrate+0xa7>
            tscmax = delta;
  1020dd:	89 44 24 10          	mov    %eax,0x10(%esp)
  1020e1:	89 54 24 14          	mov    %edx,0x14(%esp)
  1020e5:	eb a5                	jmp    10208c <tsc_calibrate+0xa7>
     * times, then we have been hit by a massive SMI
     *
     * If the maximum is 10 times larger than the minimum,
     * then we got hit by an SMI as well.
     */
    KERN_DEBUG("pitcnt=%u, tscmin=%llu, tscmax=%llu\n",
  1020e7:	ff 74 24 14          	push   0x14(%esp)
  1020eb:	ff 74 24 14          	push   0x14(%esp)
  1020ef:	ff 74 24 14          	push   0x14(%esp)
  1020f3:	ff 74 24 14          	push   0x14(%esp)
  1020f7:	57                   	push   %edi
  1020f8:	8d 86 28 b3 ff ff    	lea    -0x4cd8(%esi),%eax
  1020fe:	50                   	push   %eax
  1020ff:	6a 39                	push   $0x39
  102101:	8d 86 71 b3 ff ff    	lea    -0x4c8f(%esi),%eax
  102107:	50                   	push   %eax
  102108:	e8 28 08 00 00       	call   102935 <debug_normal>
               pitcnt, tscmin, tscmax);
    if (pitcnt < loopmin || tscmax > 10 * tscmin)
  10210d:	83 c4 20             	add    $0x20,%esp
  102110:	3b 7c 24 28          	cmp    0x28(%esp),%edi
  102114:	7c 53                	jl     102169 <tsc_calibrate+0x184>
  102116:	8b 7c 24 08          	mov    0x8(%esp),%edi
  10211a:	8b 6c 24 0c          	mov    0xc(%esp),%ebp
  10211e:	6b cd 0a             	imul   $0xa,%ebp,%ecx
  102121:	b8 0a 00 00 00       	mov    $0xa,%eax
  102126:	f7 e7                	mul    %edi
  102128:	01 ca                	add    %ecx,%edx
  10212a:	8b 7c 24 10          	mov    0x10(%esp),%edi
  10212e:	8b 6c 24 14          	mov    0x14(%esp),%ebp
  102132:	39 f8                	cmp    %edi,%eax
  102134:	89 d0                	mov    %edx,%eax
  102136:	19 e8                	sbb    %ebp,%eax
  102138:	72 3b                	jb     102175 <tsc_calibrate+0x190>
        return ~(uint64_t) 0x0;

    /* Calculate the PIT value */
    delta = t2 - t1;
  10213a:	8b 44 24 18          	mov    0x18(%esp),%eax
  10213e:	8b 54 24 1c          	mov    0x1c(%esp),%edx
  102142:	2b 44 24 20          	sub    0x20(%esp),%eax
  102146:	1b 54 24 24          	sbb    0x24(%esp),%edx
    return delta / ms;
  10214a:	8b 4c 24 2c          	mov    0x2c(%esp),%ecx
  10214e:	bb 00 00 00 00       	mov    $0x0,%ebx
  102153:	53                   	push   %ebx
  102154:	51                   	push   %ecx
  102155:	52                   	push   %edx
  102156:	50                   	push   %eax
  102157:	89 f3                	mov    %esi,%ebx
  102159:	e8 02 34 00 00       	call   105560 <__udivdi3>
  10215e:	83 c4 10             	add    $0x10,%esp
}
  102161:	83 c4 3c             	add    $0x3c,%esp
  102164:	5b                   	pop    %ebx
  102165:	5e                   	pop    %esi
  102166:	5f                   	pop    %edi
  102167:	5d                   	pop    %ebp
  102168:	c3                   	ret    
        return ~(uint64_t) 0x0;
  102169:	b8 ff ff ff ff       	mov    $0xffffffff,%eax
  10216e:	ba ff ff ff ff       	mov    $0xffffffff,%edx
  102173:	eb ec                	jmp    102161 <tsc_calibrate+0x17c>
  102175:	b8 ff ff ff ff       	mov    $0xffffffff,%eax
  10217a:	ba ff ff ff ff       	mov    $0xffffffff,%edx
  10217f:	eb e0                	jmp    102161 <tsc_calibrate+0x17c>

00102181 <tsc_init>:

int tsc_init(void)
{
  102181:	55                   	push   %ebp
  102182:	57                   	push   %edi
  102183:	56                   	push   %esi
  102184:	53                   	push   %ebx
  102185:	83 ec 1c             	sub    $0x1c,%esp
  102188:	e8 7f e1 ff ff       	call   10030c <__x86.get_pc_thunk.bx>
  10218d:	81 c3 73 8e 00 00    	add    $0x8e73,%ebx
    uint64_t ret;
    int i;

    timer_hw_init();
  102193:	e8 15 fe ff ff       	call   101fad <timer_hw_init>

    tsc_per_ms = 0;
  102198:	c7 83 a8 98 02 00 00 	movl   $0x0,0x298a8(%ebx)
  10219f:	00 00 00 
  1021a2:	c7 83 ac 98 02 00 00 	movl   $0x0,0x298ac(%ebx)
  1021a9:	00 00 00 

    if (detect_kvm())
  1021ac:	e8 fa 03 00 00       	call   1025ab <detect_kvm>
  1021b1:	89 44 24 0c          	mov    %eax,0xc(%esp)
  1021b5:	85 c0                	test   %eax,%eax
  1021b7:	75 53                	jne    10220c <tsc_init+0x8b>

    /*
     * XXX: If TSC calibration fails frequently, try to increase the
     *      upper bound of loop condition, e.g. alternating 3 to 10.
     */
    for (i = 0; i < 10; i++) {
  1021b9:	8b 6c 24 0c          	mov    0xc(%esp),%ebp
  1021bd:	83 fd 09             	cmp    $0x9,%ebp
  1021c0:	0f 8f bf 00 00 00    	jg     102285 <tsc_init+0x104>
        ret = tsc_calibrate(CAL_LATCH, CAL_MS, CAL_PIT_LOOPS);
  1021c6:	b9 e8 03 00 00       	mov    $0x3e8,%ecx
  1021cb:	ba 0a 00 00 00       	mov    $0xa,%edx
  1021d0:	b8 9b 2e 00 00       	mov    $0x2e9b,%eax
  1021d5:	e8 0b fe ff ff       	call   101fe5 <tsc_calibrate>
  1021da:	89 c6                	mov    %eax,%esi
  1021dc:	89 d7                	mov    %edx,%edi
        if (ret != ~(uint64_t) 0x0)
  1021de:	89 c2                	mov    %eax,%edx
  1021e0:	f7 d2                	not    %edx
  1021e2:	89 f8                	mov    %edi,%eax
  1021e4:	f7 d0                	not    %eax
  1021e6:	09 d0                	or     %edx,%eax
  1021e8:	0f 85 97 00 00 00    	jne    102285 <tsc_init+0x104>
            break;
        KERN_DEBUG("[%d] Retry to calibrate TSC.\n", i + 1);
  1021ee:	83 c5 01             	add    $0x1,%ebp
  1021f1:	55                   	push   %ebp
  1021f2:	8d 83 80 b3 ff ff    	lea    -0x4c80(%ebx),%eax
  1021f8:	50                   	push   %eax
  1021f9:	6a 5c                	push   $0x5c
  1021fb:	8d 83 71 b3 ff ff    	lea    -0x4c8f(%ebx),%eax
  102201:	50                   	push   %eax
  102202:	e8 2e 07 00 00       	call   102935 <debug_normal>
  102207:	83 c4 10             	add    $0x10,%esp
  10220a:	eb b1                	jmp    1021bd <tsc_init+0x3c>
		tsc_per_ms = kvm_get_tsc_hz() / 1000llu;
  10220c:	e8 b4 04 00 00       	call   1026c5 <kvm_get_tsc_hz>
  102211:	6a 00                	push   $0x0
  102213:	68 e8 03 00 00       	push   $0x3e8
  102218:	52                   	push   %edx
  102219:	50                   	push   %eax
  10221a:	e8 41 33 00 00       	call   105560 <__udivdi3>
  10221f:	89 83 a8 98 02 00    	mov    %eax,0x298a8(%ebx)
  102225:	89 93 ac 98 02 00    	mov    %edx,0x298ac(%ebx)
		KERN_INFO ("TSC read from KVM: %u.%03u MHz.\n",
  10222b:	8b 83 a8 98 02 00    	mov    0x298a8(%ebx),%eax
  102231:	8b 93 ac 98 02 00    	mov    0x298ac(%ebx),%edx
  102237:	8b b3 a8 98 02 00    	mov    0x298a8(%ebx),%esi
  10223d:	8b bb ac 98 02 00    	mov    0x298ac(%ebx),%edi
  102243:	6a 00                	push   $0x0
  102245:	68 e8 03 00 00       	push   $0x3e8
  10224a:	52                   	push   %edx
  10224b:	50                   	push   %eax
  10224c:	e8 2f 34 00 00       	call   105680 <__umoddi3>
  102251:	83 c4 14             	add    $0x14,%esp
  102254:	52                   	push   %edx
  102255:	50                   	push   %eax
  102256:	83 ec 0c             	sub    $0xc,%esp
  102259:	6a 00                	push   $0x0
  10225b:	68 e8 03 00 00       	push   $0x3e8
  102260:	57                   	push   %edi
  102261:	56                   	push   %esi
  102262:	e8 f9 32 00 00       	call   105560 <__udivdi3>
  102267:	83 c4 1c             	add    $0x1c,%esp
  10226a:	52                   	push   %edx
  10226b:	50                   	push   %eax
  10226c:	8d 83 50 b3 ff ff    	lea    -0x4cb0(%ebx),%eax
  102272:	50                   	push   %eax
  102273:	e8 98 06 00 00       	call   102910 <debug_info>
		return (0);
  102278:	83 c4 20             	add    $0x20,%esp
  10227b:	c7 44 24 0c 00 00 00 	movl   $0x0,0xc(%esp)
  102282:	00 
  102283:	eb 79                	jmp    1022fe <tsc_init+0x17d>
    }

    if (ret == ~(uint64_t) 0x0) {
  102285:	89 fa                	mov    %edi,%edx
  102287:	f7 d2                	not    %edx
  102289:	89 f0                	mov    %esi,%eax
  10228b:	f7 d0                	not    %eax
  10228d:	09 c2                	or     %eax,%edx
  10228f:	74 79                	je     10230a <tsc_init+0x189>
        tsc_per_ms = 1000000;

        timer_hw_init();
        return 1;
    } else {
        tsc_per_ms = ret;
  102291:	89 b3 a8 98 02 00    	mov    %esi,0x298a8(%ebx)
  102297:	89 bb ac 98 02 00    	mov    %edi,0x298ac(%ebx)
        KERN_DEBUG("TSC freq = %u.%03u MHz.\n",tsc_per_ms / 1000, tsc_per_ms % 1000);
  10229d:	8b 83 a8 98 02 00    	mov    0x298a8(%ebx),%eax
  1022a3:	8b 93 ac 98 02 00    	mov    0x298ac(%ebx),%edx
  1022a9:	8b b3 a8 98 02 00    	mov    0x298a8(%ebx),%esi
  1022af:	8b bb ac 98 02 00    	mov    0x298ac(%ebx),%edi
  1022b5:	83 ec 10             	sub    $0x10,%esp
  1022b8:	6a 00                	push   $0x0
  1022ba:	68 e8 03 00 00       	push   $0x3e8
  1022bf:	52                   	push   %edx
  1022c0:	50                   	push   %eax
  1022c1:	e8 ba 33 00 00       	call   105680 <__umoddi3>
  1022c6:	83 c4 1c             	add    $0x1c,%esp
  1022c9:	52                   	push   %edx
  1022ca:	50                   	push   %eax
  1022cb:	83 ec 04             	sub    $0x4,%esp
  1022ce:	6a 00                	push   $0x0
  1022d0:	68 e8 03 00 00       	push   $0x3e8
  1022d5:	57                   	push   %edi
  1022d6:	56                   	push   %esi
  1022d7:	e8 84 32 00 00       	call   105560 <__udivdi3>
  1022dc:	83 c4 14             	add    $0x14,%esp
  1022df:	52                   	push   %edx
  1022e0:	50                   	push   %eax
  1022e1:	8d 83 d1 b3 ff ff    	lea    -0x4c2f(%ebx),%eax
  1022e7:	50                   	push   %eax
  1022e8:	6a 68                	push   $0x68
  1022ea:	8d 83 71 b3 ff ff    	lea    -0x4c8f(%ebx),%eax
  1022f0:	50                   	push   %eax
  1022f1:	e8 3f 06 00 00       	call   102935 <debug_normal>

        timer_hw_init();
  1022f6:	83 c4 20             	add    $0x20,%esp
  1022f9:	e8 af fc ff ff       	call   101fad <timer_hw_init>
        return 0;
    }
}
  1022fe:	8b 44 24 0c          	mov    0xc(%esp),%eax
  102302:	83 c4 1c             	add    $0x1c,%esp
  102305:	5b                   	pop    %ebx
  102306:	5e                   	pop    %esi
  102307:	5f                   	pop    %edi
  102308:	5d                   	pop    %ebp
  102309:	c3                   	ret    
        KERN_DEBUG("TSC calibration failed.\n");
  10230a:	83 ec 04             	sub    $0x4,%esp
  10230d:	8d 83 9e b3 ff ff    	lea    -0x4c62(%ebx),%eax
  102313:	50                   	push   %eax
  102314:	6a 60                	push   $0x60
  102316:	8d b3 71 b3 ff ff    	lea    -0x4c8f(%ebx),%esi
  10231c:	56                   	push   %esi
  10231d:	e8 13 06 00 00       	call   102935 <debug_normal>
        KERN_DEBUG("Assume TSC freq = 1 GHz.\n");
  102322:	83 c4 0c             	add    $0xc,%esp
  102325:	8d 83 b7 b3 ff ff    	lea    -0x4c49(%ebx),%eax
  10232b:	50                   	push   %eax
  10232c:	6a 61                	push   $0x61
  10232e:	56                   	push   %esi
  10232f:	e8 01 06 00 00       	call   102935 <debug_normal>
        tsc_per_ms = 1000000;
  102334:	c7 83 a8 98 02 00 40 	movl   $0xf4240,0x298a8(%ebx)
  10233b:	42 0f 00 
  10233e:	c7 83 ac 98 02 00 00 	movl   $0x0,0x298ac(%ebx)
  102345:	00 00 00 
        timer_hw_init();
  102348:	e8 60 fc ff ff       	call   101fad <timer_hw_init>
        return 1;
  10234d:	83 c4 10             	add    $0x10,%esp
  102350:	c7 44 24 0c 01 00 00 	movl   $0x1,0xc(%esp)
  102357:	00 
  102358:	eb a4                	jmp    1022fe <tsc_init+0x17d>

0010235a <delay>:

/*
 * Wait for ms millisecond.
 */
void delay(uint32_t ms)
{
  10235a:	55                   	push   %ebp
  10235b:	57                   	push   %edi
  10235c:	56                   	push   %esi
  10235d:	53                   	push   %ebx
  10235e:	83 ec 1c             	sub    $0x1c,%esp
  102361:	e8 e7 00 00 00       	call   10244d <__x86.get_pc_thunk.bp>
  102366:	81 c5 9a 8c 00 00    	add    $0x8c9a,%ebp
  10236c:	8b 44 24 30          	mov    0x30(%esp),%eax
    volatile uint64_t ticks = tsc_per_ms * ms;
  102370:	8b b5 a8 98 02 00    	mov    0x298a8(%ebp),%esi
  102376:	8b bd ac 98 02 00    	mov    0x298ac(%ebp),%edi
  10237c:	89 f9                	mov    %edi,%ecx
  10237e:	0f af c8             	imul   %eax,%ecx
  102381:	f7 e6                	mul    %esi
  102383:	01 ca                	add    %ecx,%edx
  102385:	89 44 24 08          	mov    %eax,0x8(%esp)
  102389:	89 54 24 0c          	mov    %edx,0xc(%esp)
    volatile uint64_t start = rdtsc();
  10238d:	89 eb                	mov    %ebp,%ebx
  10238f:	e8 31 11 00 00       	call   1034c5 <rdtsc>
  102394:	89 04 24             	mov    %eax,(%esp)
  102397:	89 54 24 04          	mov    %edx,0x4(%esp)
    while (rdtsc() < start + ticks);
  10239b:	89 eb                	mov    %ebp,%ebx
  10239d:	e8 23 11 00 00       	call   1034c5 <rdtsc>
  1023a2:	89 c3                	mov    %eax,%ebx
  1023a4:	89 d1                	mov    %edx,%ecx
  1023a6:	8b 04 24             	mov    (%esp),%eax
  1023a9:	8b 54 24 04          	mov    0x4(%esp),%edx
  1023ad:	8b 74 24 08          	mov    0x8(%esp),%esi
  1023b1:	8b 7c 24 0c          	mov    0xc(%esp),%edi
  1023b5:	01 f0                	add    %esi,%eax
  1023b7:	11 fa                	adc    %edi,%edx
  1023b9:	39 c3                	cmp    %eax,%ebx
  1023bb:	19 d1                	sbb    %edx,%ecx
  1023bd:	72 dc                	jb     10239b <delay+0x41>
}
  1023bf:	83 c4 1c             	add    $0x1c,%esp
  1023c2:	5b                   	pop    %ebx
  1023c3:	5e                   	pop    %esi
  1023c4:	5f                   	pop    %edi
  1023c5:	5d                   	pop    %ebp
  1023c6:	c3                   	ret    

001023c7 <udelay>:

/*
 * Wait for us microsecond.
 */
void udelay(uint32_t us)
{
  1023c7:	55                   	push   %ebp
  1023c8:	57                   	push   %edi
  1023c9:	56                   	push   %esi
  1023ca:	53                   	push   %ebx
  1023cb:	83 ec 1c             	sub    $0x1c,%esp
  1023ce:	e8 7a 00 00 00       	call   10244d <__x86.get_pc_thunk.bp>
  1023d3:	81 c5 2d 8c 00 00    	add    $0x8c2d,%ebp
  1023d9:	8b 74 24 30          	mov    0x30(%esp),%esi
    volatile uint64_t ticks = tsc_per_ms / 1000 * us;
  1023dd:	8b 85 a8 98 02 00    	mov    0x298a8(%ebp),%eax
  1023e3:	8b 95 ac 98 02 00    	mov    0x298ac(%ebp),%edx
  1023e9:	6a 00                	push   $0x0
  1023eb:	68 e8 03 00 00       	push   $0x3e8
  1023f0:	52                   	push   %edx
  1023f1:	50                   	push   %eax
  1023f2:	89 eb                	mov    %ebp,%ebx
  1023f4:	e8 67 31 00 00       	call   105560 <__udivdi3>
  1023f9:	83 c4 10             	add    $0x10,%esp
  1023fc:	89 d3                	mov    %edx,%ebx
  1023fe:	89 c2                	mov    %eax,%edx
  102400:	89 d9                	mov    %ebx,%ecx
  102402:	0f af ce             	imul   %esi,%ecx
  102405:	89 f0                	mov    %esi,%eax
  102407:	f7 e2                	mul    %edx
  102409:	01 ca                	add    %ecx,%edx
  10240b:	89 44 24 08          	mov    %eax,0x8(%esp)
  10240f:	89 54 24 0c          	mov    %edx,0xc(%esp)
    volatile uint64_t start = rdtsc();
  102413:	89 eb                	mov    %ebp,%ebx
  102415:	e8 ab 10 00 00       	call   1034c5 <rdtsc>
  10241a:	89 04 24             	mov    %eax,(%esp)
  10241d:	89 54 24 04          	mov    %edx,0x4(%esp)
    while (rdtsc() < start + ticks);
  102421:	89 eb                	mov    %ebp,%ebx
  102423:	e8 9d 10 00 00       	call   1034c5 <rdtsc>
  102428:	89 c3                	mov    %eax,%ebx
  10242a:	89 d1                	mov    %edx,%ecx
  10242c:	8b 04 24             	mov    (%esp),%eax
  10242f:	8b 54 24 04          	mov    0x4(%esp),%edx
  102433:	8b 74 24 08          	mov    0x8(%esp),%esi
  102437:	8b 7c 24 0c          	mov    0xc(%esp),%edi
  10243b:	01 f0                	add    %esi,%eax
  10243d:	11 fa                	adc    %edi,%edx
  10243f:	39 c3                	cmp    %eax,%ebx
  102441:	19 d1                	sbb    %edx,%ecx
  102443:	72 dc                	jb     102421 <udelay+0x5a>
}
  102445:	83 c4 1c             	add    $0x1c,%esp
  102448:	5b                   	pop    %ebx
  102449:	5e                   	pop    %esi
  10244a:	5f                   	pop    %edi
  10244b:	5d                   	pop    %ebp
  10244c:	c3                   	ret    

0010244d <__x86.get_pc_thunk.bp>:
  10244d:	8b 2c 24             	mov    (%esp),%ebp
  102450:	c3                   	ret    
  102451:	66 90                	xchg   %ax,%ax
  102453:	66 90                	xchg   %ax,%ax
  102455:	66 90                	xchg   %ax,%ax
  102457:	66 90                	xchg   %ax,%ax
  102459:	66 90                	xchg   %ax,%ax
  10245b:	66 90                	xchg   %ax,%ax
  10245d:	66 90                	xchg   %ax,%ax
  10245f:	90                   	nop

00102460 <Xdivide>:
	jmp	_alltraps

.text

/* exceptions  */
TRAPHANDLER_NOEC(Xdivide,	T_DIVIDE)
  102460:	6a 00                	push   $0x0
  102462:	6a 00                	push   $0x0
  102464:	e9 17 01 00 00       	jmp    102580 <_alltraps>
  102469:	90                   	nop

0010246a <Xdebug>:
TRAPHANDLER_NOEC(Xdebug,	T_DEBUG)
  10246a:	6a 00                	push   $0x0
  10246c:	6a 01                	push   $0x1
  10246e:	e9 0d 01 00 00       	jmp    102580 <_alltraps>
  102473:	90                   	nop

00102474 <Xnmi>:
TRAPHANDLER_NOEC(Xnmi,		T_NMI)
  102474:	6a 00                	push   $0x0
  102476:	6a 02                	push   $0x2
  102478:	e9 03 01 00 00       	jmp    102580 <_alltraps>
  10247d:	90                   	nop

0010247e <Xbrkpt>:
TRAPHANDLER_NOEC(Xbrkpt,	T_BRKPT)
  10247e:	6a 00                	push   $0x0
  102480:	6a 03                	push   $0x3
  102482:	e9 f9 00 00 00       	jmp    102580 <_alltraps>
  102487:	90                   	nop

00102488 <Xoflow>:
TRAPHANDLER_NOEC(Xoflow,	T_OFLOW)
  102488:	6a 00                	push   $0x0
  10248a:	6a 04                	push   $0x4
  10248c:	e9 ef 00 00 00       	jmp    102580 <_alltraps>
  102491:	90                   	nop

00102492 <Xbound>:
TRAPHANDLER_NOEC(Xbound,	T_BOUND)
  102492:	6a 00                	push   $0x0
  102494:	6a 05                	push   $0x5
  102496:	e9 e5 00 00 00       	jmp    102580 <_alltraps>
  10249b:	90                   	nop

0010249c <Xillop>:
TRAPHANDLER_NOEC(Xillop,	T_ILLOP)
  10249c:	6a 00                	push   $0x0
  10249e:	6a 06                	push   $0x6
  1024a0:	e9 db 00 00 00       	jmp    102580 <_alltraps>
  1024a5:	90                   	nop

001024a6 <Xdevice>:
TRAPHANDLER_NOEC(Xdevice,	T_DEVICE)
  1024a6:	6a 00                	push   $0x0
  1024a8:	6a 07                	push   $0x7
  1024aa:	e9 d1 00 00 00       	jmp    102580 <_alltraps>
  1024af:	90                   	nop

001024b0 <Xdblflt>:
TRAPHANDLER     (Xdblflt,	T_DBLFLT)
  1024b0:	6a 08                	push   $0x8
  1024b2:	e9 c9 00 00 00       	jmp    102580 <_alltraps>
  1024b7:	90                   	nop

001024b8 <Xcoproc>:
TRAPHANDLER_NOEC(Xcoproc,	T_COPROC)
  1024b8:	6a 00                	push   $0x0
  1024ba:	6a 09                	push   $0x9
  1024bc:	e9 bf 00 00 00       	jmp    102580 <_alltraps>
  1024c1:	90                   	nop

001024c2 <Xtss>:
TRAPHANDLER     (Xtss,		T_TSS)
  1024c2:	6a 0a                	push   $0xa
  1024c4:	e9 b7 00 00 00       	jmp    102580 <_alltraps>
  1024c9:	90                   	nop

001024ca <Xsegnp>:
TRAPHANDLER     (Xsegnp,	T_SEGNP)
  1024ca:	6a 0b                	push   $0xb
  1024cc:	e9 af 00 00 00       	jmp    102580 <_alltraps>
  1024d1:	90                   	nop

001024d2 <Xstack>:
TRAPHANDLER     (Xstack,	T_STACK)
  1024d2:	6a 0c                	push   $0xc
  1024d4:	e9 a7 00 00 00       	jmp    102580 <_alltraps>
  1024d9:	90                   	nop

001024da <Xgpflt>:
TRAPHANDLER     (Xgpflt,	T_GPFLT)
  1024da:	6a 0d                	push   $0xd
  1024dc:	e9 9f 00 00 00       	jmp    102580 <_alltraps>
  1024e1:	90                   	nop

001024e2 <Xpgflt>:
TRAPHANDLER     (Xpgflt,	T_PGFLT)
  1024e2:	6a 0e                	push   $0xe
  1024e4:	e9 97 00 00 00       	jmp    102580 <_alltraps>
  1024e9:	90                   	nop

001024ea <Xres>:
TRAPHANDLER_NOEC(Xres,		T_RES)
  1024ea:	6a 00                	push   $0x0
  1024ec:	6a 0f                	push   $0xf
  1024ee:	e9 8d 00 00 00       	jmp    102580 <_alltraps>
  1024f3:	90                   	nop

001024f4 <Xfperr>:
TRAPHANDLER_NOEC(Xfperr,	T_FPERR)
  1024f4:	6a 00                	push   $0x0
  1024f6:	6a 10                	push   $0x10
  1024f8:	e9 83 00 00 00       	jmp    102580 <_alltraps>
  1024fd:	90                   	nop

001024fe <Xalign>:
TRAPHANDLER     (Xalign,	T_ALIGN)
  1024fe:	6a 11                	push   $0x11
  102500:	eb 7e                	jmp    102580 <_alltraps>

00102502 <Xmchk>:
TRAPHANDLER_NOEC(Xmchk,		T_MCHK)
  102502:	6a 00                	push   $0x0
  102504:	6a 12                	push   $0x12
  102506:	eb 78                	jmp    102580 <_alltraps>

00102508 <Xirq_timer>:

/* ISA interrupts  */
TRAPHANDLER_NOEC(Xirq_timer,	T_IRQ0 + IRQ_TIMER)
  102508:	6a 00                	push   $0x0
  10250a:	6a 20                	push   $0x20
  10250c:	eb 72                	jmp    102580 <_alltraps>

0010250e <Xirq_kbd>:
TRAPHANDLER_NOEC(Xirq_kbd,	T_IRQ0 + IRQ_KBD)
  10250e:	6a 00                	push   $0x0
  102510:	6a 21                	push   $0x21
  102512:	eb 6c                	jmp    102580 <_alltraps>

00102514 <Xirq_slave>:
TRAPHANDLER_NOEC(Xirq_slave,	T_IRQ0 + IRQ_SLAVE)
  102514:	6a 00                	push   $0x0
  102516:	6a 22                	push   $0x22
  102518:	eb 66                	jmp    102580 <_alltraps>

0010251a <Xirq_serial2>:
TRAPHANDLER_NOEC(Xirq_serial2,	T_IRQ0 + IRQ_SERIAL24)
  10251a:	6a 00                	push   $0x0
  10251c:	6a 23                	push   $0x23
  10251e:	eb 60                	jmp    102580 <_alltraps>

00102520 <Xirq_serial1>:
TRAPHANDLER_NOEC(Xirq_serial1,	T_IRQ0 + IRQ_SERIAL13)
  102520:	6a 00                	push   $0x0
  102522:	6a 24                	push   $0x24
  102524:	eb 5a                	jmp    102580 <_alltraps>

00102526 <Xirq_lpt>:
TRAPHANDLER_NOEC(Xirq_lpt,	T_IRQ0 + IRQ_LPT2)
  102526:	6a 00                	push   $0x0
  102528:	6a 25                	push   $0x25
  10252a:	eb 54                	jmp    102580 <_alltraps>

0010252c <Xirq_floppy>:
TRAPHANDLER_NOEC(Xirq_floppy,	T_IRQ0 + IRQ_FLOPPY)
  10252c:	6a 00                	push   $0x0
  10252e:	6a 26                	push   $0x26
  102530:	eb 4e                	jmp    102580 <_alltraps>

00102532 <Xirq_spurious>:
TRAPHANDLER_NOEC(Xirq_spurious,	T_IRQ0 + IRQ_SPURIOUS)
  102532:	6a 00                	push   $0x0
  102534:	6a 27                	push   $0x27
  102536:	eb 48                	jmp    102580 <_alltraps>

00102538 <Xirq_rtc>:
TRAPHANDLER_NOEC(Xirq_rtc,	T_IRQ0 + IRQ_RTC)
  102538:	6a 00                	push   $0x0
  10253a:	6a 28                	push   $0x28
  10253c:	eb 42                	jmp    102580 <_alltraps>

0010253e <Xirq9>:
TRAPHANDLER_NOEC(Xirq9,		T_IRQ0 + 9)
  10253e:	6a 00                	push   $0x0
  102540:	6a 29                	push   $0x29
  102542:	eb 3c                	jmp    102580 <_alltraps>

00102544 <Xirq10>:
TRAPHANDLER_NOEC(Xirq10,	T_IRQ0 + 10)
  102544:	6a 00                	push   $0x0
  102546:	6a 2a                	push   $0x2a
  102548:	eb 36                	jmp    102580 <_alltraps>

0010254a <Xirq11>:
TRAPHANDLER_NOEC(Xirq11,	T_IRQ0 + 11)
  10254a:	6a 00                	push   $0x0
  10254c:	6a 2b                	push   $0x2b
  10254e:	eb 30                	jmp    102580 <_alltraps>

00102550 <Xirq_mouse>:
TRAPHANDLER_NOEC(Xirq_mouse,	T_IRQ0 + IRQ_MOUSE)
  102550:	6a 00                	push   $0x0
  102552:	6a 2c                	push   $0x2c
  102554:	eb 2a                	jmp    102580 <_alltraps>

00102556 <Xirq_coproc>:
TRAPHANDLER_NOEC(Xirq_coproc,	T_IRQ0 + IRQ_COPROCESSOR)
  102556:	6a 00                	push   $0x0
  102558:	6a 2d                	push   $0x2d
  10255a:	eb 24                	jmp    102580 <_alltraps>

0010255c <Xirq_ide1>:
TRAPHANDLER_NOEC(Xirq_ide1,	T_IRQ0 + IRQ_IDE1)
  10255c:	6a 00                	push   $0x0
  10255e:	6a 2e                	push   $0x2e
  102560:	eb 1e                	jmp    102580 <_alltraps>

00102562 <Xirq_ide2>:
TRAPHANDLER_NOEC(Xirq_ide2,	T_IRQ0 + IRQ_IDE2)
  102562:	6a 00                	push   $0x0
  102564:	6a 2f                	push   $0x2f
  102566:	eb 18                	jmp    102580 <_alltraps>

00102568 <Xsyscall>:

/* syscall */
TRAPHANDLER_NOEC(Xsyscall,	T_SYSCALL)
  102568:	6a 00                	push   $0x0
  10256a:	6a 30                	push   $0x30
  10256c:	eb 12                	jmp    102580 <_alltraps>

0010256e <Xdefault>:

/* default ? */
TRAPHANDLER     (Xdefault,	T_DEFAULT)
  10256e:	68 fe 00 00 00       	push   $0xfe
  102573:	eb 0b                	jmp    102580 <_alltraps>
  102575:	8d b4 26 00 00 00 00 	lea    0x0(%esi,%eiz,1),%esi
  10257c:	8d 74 26 00          	lea    0x0(%esi,%eiz,1),%esi

00102580 <_alltraps>:

	.globl _alltraps
	.type _alltraps, @function
	.p2align 4, 0x90	/* 16-byte alignment, nop filled */
_alltraps:
	cli			# make sure there is no nested trap
  102580:	fa                   	cli    
	cld
  102581:	fc                   	cld    

	pushl	%ds		# build context
  102582:	1e                   	push   %ds
	pushl	%es
  102583:	06                   	push   %es
	pushal
  102584:	60                   	pusha  

	movl	$CPU_GDT_KDATA, %eax	# load kernel's data segment
  102585:	b8 10 00 00 00       	mov    $0x10,%eax
	movw	%ax, %ds
  10258a:	8e d8                	mov    %eax,%ds
	movw	%ax, %es
  10258c:	8e c0                	mov    %eax,%es

	pushl	%esp		# pass pointer to this trapframe
  10258e:	54                   	push   %esp

	call	trap		# and call trap (does not return)
  10258f:	e8 6c 2f 00 00       	call   105500 <trap>

1:	hlt			# should never get here; just spin...
  102594:	f4                   	hlt    
  102595:	8d b4 26 00 00 00 00 	lea    0x0(%esi,%eiz,1),%esi
  10259c:	8d 74 26 00          	lea    0x0(%esi,%eiz,1),%esi

001025a0 <trap_return>:
//
	.globl trap_return
	.type trap_return, @function
	.p2align 4, 0x90	/* 16-byte alignment, nop filled */
trap_return:
	movl	4(%esp), %esp	// reset stack pointer to point to trap frame
  1025a0:	8b 64 24 04          	mov    0x4(%esp),%esp
	popal			// restore general-purpose registers except esp
  1025a4:	61                   	popa   
	popl	%es		// restore data segment registers
  1025a5:	07                   	pop    %es
	popl	%ds
  1025a6:	1f                   	pop    %ds
	addl	$8, %esp	// skip tf_trapno and tf_errcode
  1025a7:	83 c4 08             	add    $0x8,%esp
	iret			// return from trap handler
  1025aa:	cf                   	iret   

001025ab <detect_kvm>:
}

#define CPUID_FEATURE_HYPERVISOR	(1<<31) /* Running on a hypervisor */

int detect_kvm(void)
{
  1025ab:	57                   	push   %edi
  1025ac:	56                   	push   %esi
  1025ad:	53                   	push   %ebx
  1025ae:	83 ec 10             	sub    $0x10,%esp
  1025b1:	e8 5c df ff ff       	call   100512 <__x86.get_pc_thunk.si>
  1025b6:	81 c6 4a 8a 00 00    	add    $0x8a4a,%esi
	__asm __volatile("cpuid"
  1025bc:	b8 01 00 00 00       	mov    $0x1,%eax
  1025c1:	b9 00 00 00 00       	mov    $0x0,%ecx
  1025c6:	0f a2                	cpuid  
	uint32_t eax;

	if (cpu_has (CPUID_FEATURE_HYPERVISOR))
  1025c8:	89 d0                	mov    %edx,%eax
  1025ca:	83 e0 01             	and    $0x1,%eax
  1025cd:	75 07                	jne    1025d6 <detect_kvm+0x2b>
		{
			return 1;
		}
	}
	return 0;
}
  1025cf:	83 c4 10             	add    $0x10,%esp
  1025d2:	5b                   	pop    %ebx
  1025d3:	5e                   	pop    %esi
  1025d4:	5f                   	pop    %edi
  1025d5:	c3                   	ret    
		cpuid (CPUID_KVM_SIGNATURE, &eax, &hyper_vendor_id[0],
  1025d6:	83 ec 0c             	sub    $0xc,%esp
  1025d9:	8d 7c 24 0c          	lea    0xc(%esp),%edi
  1025dd:	8d 44 24 14          	lea    0x14(%esp),%eax
  1025e1:	50                   	push   %eax
  1025e2:	8d 44 24 14          	lea    0x14(%esp),%eax
  1025e6:	50                   	push   %eax
  1025e7:	57                   	push   %edi
  1025e8:	8d 44 24 24          	lea    0x24(%esp),%eax
  1025ec:	50                   	push   %eax
  1025ed:	68 00 00 00 40       	push   $0x40000000
  1025f2:	89 f3                	mov    %esi,%ebx
  1025f4:	e8 e2 0e 00 00       	call   1034db <cpuid>
		if (!strncmp ("KVMKVMKVM", (const char *) hyper_vendor_id, 9))
  1025f9:	83 c4 1c             	add    $0x1c,%esp
  1025fc:	6a 09                	push   $0x9
  1025fe:	57                   	push   %edi
  1025ff:	8d 86 ea b3 ff ff    	lea    -0x4c16(%esi),%eax
  102605:	50                   	push   %eax
  102606:	e8 19 02 00 00       	call   102824 <strncmp>
  10260b:	89 fc                	mov    %edi,%esp
  10260d:	85 c0                	test   %eax,%eax
  10260f:	74 07                	je     102618 <detect_kvm+0x6d>
	return 0;
  102611:	b8 00 00 00 00       	mov    $0x0,%eax
  102616:	eb b7                	jmp    1025cf <detect_kvm+0x24>
			return 1;
  102618:	b8 01 00 00 00       	mov    $0x1,%eax
  10261d:	eb b0                	jmp    1025cf <detect_kvm+0x24>

0010261f <kvm_has_feature>:

int
kvm_has_feature(uint32_t feature)
{
  10261f:	53                   	push   %ebx
  102620:	83 ec 24             	sub    $0x24,%esp
  102623:	e8 e4 dc ff ff       	call   10030c <__x86.get_pc_thunk.bx>
  102628:	81 c3 d8 89 00 00    	add    $0x89d8,%ebx
	uint32_t eax, ebx, ecx, edx;
	eax = 0; edx = 0;
  10262e:	c7 44 24 18 00 00 00 	movl   $0x0,0x18(%esp)
  102635:	00 
  102636:	c7 44 24 0c 00 00 00 	movl   $0x0,0xc(%esp)
  10263d:	00 
	cpuid(CPUID_KVM_FEATURES, &eax, &ebx, &ecx, &edx);
  10263e:	8d 44 24 0c          	lea    0xc(%esp),%eax
  102642:	50                   	push   %eax
  102643:	8d 44 24 14          	lea    0x14(%esp),%eax
  102647:	50                   	push   %eax
  102648:	8d 44 24 1c          	lea    0x1c(%esp),%eax
  10264c:	50                   	push   %eax
  10264d:	8d 44 24 24          	lea    0x24(%esp),%eax
  102651:	50                   	push   %eax
  102652:	68 01 00 00 40       	push   $0x40000001
  102657:	e8 7f 0e 00 00       	call   1034db <cpuid>

	return ((eax & feature) != 0 ? 1 : 0);
  10265c:	8b 44 24 40          	mov    0x40(%esp),%eax
  102660:	23 44 24 2c          	and    0x2c(%esp),%eax
  102664:	85 c0                	test   %eax,%eax
  102666:	0f 95 c0             	setne  %al
  102669:	0f b6 c0             	movzbl %al,%eax
}
  10266c:	83 c4 38             	add    $0x38,%esp
  10266f:	5b                   	pop    %ebx
  102670:	c3                   	ret    

00102671 <kvm_enable_feature>:

int
kvm_enable_feature(uint32_t feature)
{
  102671:	53                   	push   %ebx
  102672:	83 ec 24             	sub    $0x24,%esp
  102675:	e8 92 dc ff ff       	call   10030c <__x86.get_pc_thunk.bx>
  10267a:	81 c3 86 89 00 00    	add    $0x8986,%ebx
	uint32_t eax, ebx, ecx, edx;
	eax = 1 << feature; edx = 0;
  102680:	8b 4c 24 2c          	mov    0x2c(%esp),%ecx
  102684:	b8 01 00 00 00       	mov    $0x1,%eax
  102689:	d3 e0                	shl    %cl,%eax
  10268b:	89 44 24 18          	mov    %eax,0x18(%esp)
  10268f:	c7 44 24 0c 00 00 00 	movl   $0x0,0xc(%esp)
  102696:	00 
	cpuid(CPUID_KVM_FEATURES, &eax, &ebx, &ecx, &edx);
  102697:	8d 44 24 0c          	lea    0xc(%esp),%eax
  10269b:	50                   	push   %eax
  10269c:	8d 44 24 14          	lea    0x14(%esp),%eax
  1026a0:	50                   	push   %eax
  1026a1:	8d 44 24 1c          	lea    0x1c(%esp),%eax
  1026a5:	50                   	push   %eax
  1026a6:	8d 44 24 24          	lea    0x24(%esp),%eax
  1026aa:	50                   	push   %eax
  1026ab:	68 01 00 00 40       	push   $0x40000001
  1026b0:	e8 26 0e 00 00       	call   1034db <cpuid>

	return (ebx == 0 ? 1 : 0);
  1026b5:	83 7c 24 28 00       	cmpl   $0x0,0x28(%esp)
  1026ba:	0f 94 c0             	sete   %al
  1026bd:	0f b6 c0             	movzbl %al,%eax
}
  1026c0:	83 c4 38             	add    $0x38,%esp
  1026c3:	5b                   	pop    %ebx
  1026c4:	c3                   	ret    

001026c5 <kvm_get_tsc_hz>:

uint64_t
kvm_get_tsc_hz(void)
{
  1026c5:	55                   	push   %ebp
  1026c6:	57                   	push   %edi
  1026c7:	56                   	push   %esi
  1026c8:	53                   	push   %ebx
  1026c9:	83 ec 28             	sub    $0x28,%esp
  1026cc:	e8 3b dc ff ff       	call   10030c <__x86.get_pc_thunk.bx>
  1026d1:	81 c3 2f 89 00 00    	add    $0x892f,%ebx
	uint64_t tsc_hz = 0llu;
	uint32_t msr_sys_time;

	if (kvm_has_feature(KVM_FEATURE_CLOCKSOURCE2))
  1026d7:	6a 03                	push   $0x3
  1026d9:	e8 41 ff ff ff       	call   10261f <kvm_has_feature>
  1026de:	83 c4 10             	add    $0x10,%esp
  1026e1:	85 c0                	test   %eax,%eax
  1026e3:	75 18                	jne    1026fd <kvm_get_tsc_hz+0x38>
	{
		msr_sys_time = MSR_KVM_SYSTEM_TIME_NEW;
	}
	else if (kvm_has_feature(KVM_FEATURE_CLOCKSOURCE))
  1026e5:	83 ec 0c             	sub    $0xc,%esp
  1026e8:	6a 00                	push   $0x0
  1026ea:	e8 30 ff ff ff       	call   10261f <kvm_has_feature>
  1026ef:	83 c4 10             	add    $0x10,%esp
  1026f2:	85 c0                	test   %eax,%eax
  1026f4:	74 57                	je     10274d <kvm_get_tsc_hz+0x88>
	{
		msr_sys_time = MSR_KVM_SYSTEM_TIME;
  1026f6:	bd 12 00 00 00       	mov    $0x12,%ebp
  1026fb:	eb 05                	jmp    102702 <kvm_get_tsc_hz+0x3d>
		msr_sys_time = MSR_KVM_SYSTEM_TIME_NEW;
  1026fd:	bd 01 4d 56 4b       	mov    $0x4b564d01,%ebp
	{
		return (0llu);
	}

	/* bit0 == 1 means enable, kvm will update this memory periodically */
	wrmsr(msr_sys_time, (uint64_t) ((uint32_t) &pvclock) | 0x1llu);
  102702:	8d 83 c0 98 02 00    	lea    0x298c0(%ebx),%eax
  102708:	83 ec 04             	sub    $0x4,%esp
  10270b:	89 44 24 10          	mov    %eax,0x10(%esp)
  10270f:	83 c8 01             	or     $0x1,%eax
  102712:	ba 00 00 00 00       	mov    $0x0,%edx
  102717:	52                   	push   %edx
  102718:	50                   	push   %eax
  102719:	55                   	push   %ebp
  10271a:	e8 95 0d 00 00       	call   1034b4 <wrmsr>

	tsc_hz = (uint64_t) pvclock.tsc_to_system_mul;
  10271f:	8b b3 d8 98 02 00    	mov    0x298d8(%ebx),%esi
  102725:	bf 00 00 00 00       	mov    $0x0,%edi

	/* disable update */
	wrmsr(msr_sys_time, (uint64_t) ((uint32_t) &pvclock));
  10272a:	83 c4 0c             	add    $0xc,%esp
  10272d:	8b 44 24 10          	mov    0x10(%esp),%eax
  102731:	ba 00 00 00 00       	mov    $0x0,%edx
  102736:	52                   	push   %edx
  102737:	50                   	push   %eax
  102738:	55                   	push   %ebp
  102739:	e8 76 0d 00 00       	call   1034b4 <wrmsr>

	return tsc_hz;
  10273e:	83 c4 10             	add    $0x10,%esp
}
  102741:	89 f0                	mov    %esi,%eax
  102743:	89 fa                	mov    %edi,%edx
  102745:	83 c4 1c             	add    $0x1c,%esp
  102748:	5b                   	pop    %ebx
  102749:	5e                   	pop    %esi
  10274a:	5f                   	pop    %edi
  10274b:	5d                   	pop    %ebp
  10274c:	c3                   	ret    
		return (0llu);
  10274d:	be 00 00 00 00       	mov    $0x0,%esi
  102752:	bf 00 00 00 00       	mov    $0x0,%edi
  102757:	eb e8                	jmp    102741 <kvm_get_tsc_hz+0x7c>

00102759 <memset>:
#include "string.h"
#include "types.h"

void *memset(void *v, int c, size_t n)
{
  102759:	57                   	push   %edi
  10275a:	53                   	push   %ebx
  10275b:	8b 7c 24 0c          	mov    0xc(%esp),%edi
  10275f:	8b 4c 24 14          	mov    0x14(%esp),%ecx
    if (n == 0)
  102763:	85 c9                	test   %ecx,%ecx
  102765:	74 38                	je     10279f <memset+0x46>
        return v;
    if ((int) v % 4 == 0 && n % 4 == 0) {
  102767:	f7 c7 03 00 00 00    	test   $0x3,%edi
  10276d:	75 29                	jne    102798 <memset+0x3f>
  10276f:	f6 c1 03             	test   $0x3,%cl
  102772:	75 24                	jne    102798 <memset+0x3f>
        c &= 0xFF;
  102774:	0f b6 54 24 10       	movzbl 0x10(%esp),%edx
        c = (c << 24) | (c << 16) | (c << 8) | c;
  102779:	8b 44 24 10          	mov    0x10(%esp),%eax
  10277d:	c1 e0 18             	shl    $0x18,%eax
  102780:	89 d3                	mov    %edx,%ebx
  102782:	c1 e3 10             	shl    $0x10,%ebx
  102785:	09 d8                	or     %ebx,%eax
  102787:	89 d3                	mov    %edx,%ebx
  102789:	c1 e3 08             	shl    $0x8,%ebx
  10278c:	09 d8                	or     %ebx,%eax
  10278e:	09 d0                	or     %edx,%eax
        asm volatile ("cld; rep stosl\n"
                      :: "D" (v), "a" (c), "c" (n / 4)
  102790:	c1 e9 02             	shr    $0x2,%ecx
        asm volatile ("cld; rep stosl\n"
  102793:	fc                   	cld    
  102794:	f3 ab                	rep stos %eax,%es:(%edi)
  102796:	eb 07                	jmp    10279f <memset+0x46>
                      : "cc", "memory");
    } else
        asm volatile ("cld; rep stosb\n"
  102798:	8b 44 24 10          	mov    0x10(%esp),%eax
  10279c:	fc                   	cld    
  10279d:	f3 aa                	rep stos %al,%es:(%edi)
                      :: "D" (v), "a" (c), "c" (n)
                      : "cc", "memory");
    return v;
}
  10279f:	89 f8                	mov    %edi,%eax
  1027a1:	5b                   	pop    %ebx
  1027a2:	5f                   	pop    %edi
  1027a3:	c3                   	ret    

001027a4 <memmove>:

void *memmove(void *dst, const void *src, size_t n)
{
  1027a4:	57                   	push   %edi
  1027a5:	56                   	push   %esi
  1027a6:	8b 44 24 0c          	mov    0xc(%esp),%eax
  1027aa:	8b 74 24 10          	mov    0x10(%esp),%esi
  1027ae:	8b 4c 24 14          	mov    0x14(%esp),%ecx
    const char *s;
    char *d;

    s = src;
    d = dst;
    if (s < d && s + n > d) {
  1027b2:	39 c6                	cmp    %eax,%esi
  1027b4:	73 36                	jae    1027ec <memmove+0x48>
  1027b6:	8d 14 0e             	lea    (%esi,%ecx,1),%edx
  1027b9:	39 c2                	cmp    %eax,%edx
  1027bb:	76 2f                	jbe    1027ec <memmove+0x48>
        s += n;
        d += n;
  1027bd:	8d 3c 08             	lea    (%eax,%ecx,1),%edi
        if ((int) s % 4 == 0 && (int) d % 4 == 0 && n % 4 == 0)
  1027c0:	f6 c2 03             	test   $0x3,%dl
  1027c3:	75 1b                	jne    1027e0 <memmove+0x3c>
  1027c5:	f7 c7 03 00 00 00    	test   $0x3,%edi
  1027cb:	75 13                	jne    1027e0 <memmove+0x3c>
  1027cd:	f6 c1 03             	test   $0x3,%cl
  1027d0:	75 0e                	jne    1027e0 <memmove+0x3c>
            asm volatile ("std; rep movsl\n"
                          :: "D" (d - 4), "S" (s - 4), "c" (n / 4)
  1027d2:	83 ef 04             	sub    $0x4,%edi
  1027d5:	8d 72 fc             	lea    -0x4(%edx),%esi
  1027d8:	c1 e9 02             	shr    $0x2,%ecx
            asm volatile ("std; rep movsl\n"
  1027db:	fd                   	std    
  1027dc:	f3 a5                	rep movsl %ds:(%esi),%es:(%edi)
  1027de:	eb 09                	jmp    1027e9 <memmove+0x45>
                          : "cc", "memory");
        else
            asm volatile ("std; rep movsb\n"
                          :: "D" (d - 1), "S" (s - 1), "c" (n)
  1027e0:	83 ef 01             	sub    $0x1,%edi
  1027e3:	8d 72 ff             	lea    -0x1(%edx),%esi
            asm volatile ("std; rep movsb\n"
  1027e6:	fd                   	std    
  1027e7:	f3 a4                	rep movsb %ds:(%esi),%es:(%edi)
                          : "cc", "memory");
        // Some versions of GCC rely on DF being clear
        asm volatile ("cld" ::: "cc");
  1027e9:	fc                   	cld    
  1027ea:	eb 20                	jmp    10280c <memmove+0x68>
    } else {
        if ((int) s % 4 == 0 && (int) d % 4 == 0 && n % 4 == 0)
  1027ec:	f7 c6 03 00 00 00    	test   $0x3,%esi
  1027f2:	75 13                	jne    102807 <memmove+0x63>
  1027f4:	a8 03                	test   $0x3,%al
  1027f6:	75 0f                	jne    102807 <memmove+0x63>
  1027f8:	f6 c1 03             	test   $0x3,%cl
  1027fb:	75 0a                	jne    102807 <memmove+0x63>
            asm volatile ("cld; rep movsl\n"
                          :: "D" (d), "S" (s), "c" (n / 4)
  1027fd:	c1 e9 02             	shr    $0x2,%ecx
            asm volatile ("cld; rep movsl\n"
  102800:	89 c7                	mov    %eax,%edi
  102802:	fc                   	cld    
  102803:	f3 a5                	rep movsl %ds:(%esi),%es:(%edi)
  102805:	eb 05                	jmp    10280c <memmove+0x68>
                          : "cc", "memory");
        else
            asm volatile ("cld; rep movsb\n"
  102807:	89 c7                	mov    %eax,%edi
  102809:	fc                   	cld    
  10280a:	f3 a4                	rep movsb %ds:(%esi),%es:(%edi)
                          :: "D" (d), "S" (s), "c" (n)
                          : "cc", "memory");
    }
    return dst;
}
  10280c:	5e                   	pop    %esi
  10280d:	5f                   	pop    %edi
  10280e:	c3                   	ret    

0010280f <memcpy>:

void *memcpy(void *dst, const void *src, size_t n)
{
    return memmove(dst, src, n);
  10280f:	ff 74 24 0c          	push   0xc(%esp)
  102813:	ff 74 24 0c          	push   0xc(%esp)
  102817:	ff 74 24 0c          	push   0xc(%esp)
  10281b:	e8 84 ff ff ff       	call   1027a4 <memmove>
  102820:	83 c4 0c             	add    $0xc,%esp
}
  102823:	c3                   	ret    

00102824 <strncmp>:

int strncmp(const char *p, const char *q, size_t n)
{
  102824:	53                   	push   %ebx
  102825:	8b 54 24 08          	mov    0x8(%esp),%edx
  102829:	8b 4c 24 0c          	mov    0xc(%esp),%ecx
  10282d:	8b 44 24 10          	mov    0x10(%esp),%eax
    while (n > 0 && *p && *p == *q)
  102831:	eb 09                	jmp    10283c <strncmp+0x18>
        n--, p++, q++;
  102833:	83 e8 01             	sub    $0x1,%eax
  102836:	83 c2 01             	add    $0x1,%edx
  102839:	83 c1 01             	add    $0x1,%ecx
    while (n > 0 && *p && *p == *q)
  10283c:	85 c0                	test   %eax,%eax
  10283e:	74 0b                	je     10284b <strncmp+0x27>
  102840:	0f b6 1a             	movzbl (%edx),%ebx
  102843:	84 db                	test   %bl,%bl
  102845:	74 04                	je     10284b <strncmp+0x27>
  102847:	3a 19                	cmp    (%ecx),%bl
  102849:	74 e8                	je     102833 <strncmp+0xf>
    if (n == 0)
  10284b:	85 c0                	test   %eax,%eax
  10284d:	74 0a                	je     102859 <strncmp+0x35>
        return 0;
    else
        return (int) ((unsigned char) *p - (unsigned char) *q);
  10284f:	0f b6 02             	movzbl (%edx),%eax
  102852:	0f b6 11             	movzbl (%ecx),%edx
  102855:	29 d0                	sub    %edx,%eax
}
  102857:	5b                   	pop    %ebx
  102858:	c3                   	ret    
        return 0;
  102859:	b8 00 00 00 00       	mov    $0x0,%eax
  10285e:	eb f7                	jmp    102857 <strncmp+0x33>

00102860 <strnlen>:

int strnlen(const char *s, size_t size)
{
  102860:	8b 54 24 04          	mov    0x4(%esp),%edx
  102864:	8b 44 24 08          	mov    0x8(%esp),%eax
    int n;

    for (n = 0; size > 0 && *s != '\0'; s++, size--)
  102868:	b9 00 00 00 00       	mov    $0x0,%ecx
  10286d:	eb 09                	jmp    102878 <strnlen+0x18>
        n++;
  10286f:	83 c1 01             	add    $0x1,%ecx
    for (n = 0; size > 0 && *s != '\0'; s++, size--)
  102872:	83 c2 01             	add    $0x1,%edx
  102875:	83 e8 01             	sub    $0x1,%eax
  102878:	85 c0                	test   %eax,%eax
  10287a:	74 05                	je     102881 <strnlen+0x21>
  10287c:	80 3a 00             	cmpb   $0x0,(%edx)
  10287f:	75 ee                	jne    10286f <strnlen+0xf>
    return n;
}
  102881:	89 c8                	mov    %ecx,%eax
  102883:	c3                   	ret    

00102884 <strcmp>:

int strcmp(const char *p, const char *q)
{
  102884:	8b 4c 24 04          	mov    0x4(%esp),%ecx
  102888:	8b 54 24 08          	mov    0x8(%esp),%edx
    while (*p && *p == *q)
  10288c:	eb 06                	jmp    102894 <strcmp+0x10>
        p++, q++;
  10288e:	83 c1 01             	add    $0x1,%ecx
  102891:	83 c2 01             	add    $0x1,%edx
    while (*p && *p == *q)
  102894:	0f b6 01             	movzbl (%ecx),%eax
  102897:	84 c0                	test   %al,%al
  102899:	74 04                	je     10289f <strcmp+0x1b>
  10289b:	3a 02                	cmp    (%edx),%al
  10289d:	74 ef                	je     10288e <strcmp+0xa>
    return (int) ((unsigned char) *p - (unsigned char) *q);
  10289f:	0f b6 c0             	movzbl %al,%eax
  1028a2:	0f b6 12             	movzbl (%edx),%edx
  1028a5:	29 d0                	sub    %edx,%eax
}
  1028a7:	c3                   	ret    

001028a8 <strchr>:

// Return a pointer to the first occurrence of 'c' in 's',
// or a null pointer if the string has no 'c'.
char *strchr(const char *s, char c)
{
  1028a8:	8b 44 24 04          	mov    0x4(%esp),%eax
  1028ac:	0f b6 4c 24 08       	movzbl 0x8(%esp),%ecx
    for (; *s; s++)
  1028b1:	eb 03                	jmp    1028b6 <strchr+0xe>
  1028b3:	83 c0 01             	add    $0x1,%eax
  1028b6:	0f b6 10             	movzbl (%eax),%edx
  1028b9:	84 d2                	test   %dl,%dl
  1028bb:	74 06                	je     1028c3 <strchr+0x1b>
        if (*s == c)
  1028bd:	38 ca                	cmp    %cl,%dl
  1028bf:	75 f2                	jne    1028b3 <strchr+0xb>
  1028c1:	eb 05                	jmp    1028c8 <strchr+0x20>
            return (char *) s;
    return 0;
  1028c3:	b8 00 00 00 00       	mov    $0x0,%eax
}
  1028c8:	c3                   	ret    

001028c9 <memzero>:

void *memzero(void *v, size_t n)
{
    return memset(v, 0, n);
  1028c9:	ff 74 24 08          	push   0x8(%esp)
  1028cd:	6a 00                	push   $0x0
  1028cf:	ff 74 24 0c          	push   0xc(%esp)
  1028d3:	e8 81 fe ff ff       	call   102759 <memset>
  1028d8:	83 c4 0c             	add    $0xc,%esp
}
  1028db:	c3                   	ret    

001028dc <debug_trace>:
}

#define DEBUG_TRACEFRAMES 10

static void debug_trace(uintptr_t ebp, uintptr_t *eips)
{
  1028dc:	53                   	push   %ebx
    int i;
    uintptr_t *frame = (uintptr_t *) ebp;

    for (i = 0; i < DEBUG_TRACEFRAMES && frame; i++) {
  1028dd:	b9 00 00 00 00       	mov    $0x0,%ecx
  1028e2:	eb 0b                	jmp    1028ef <debug_trace+0x13>
        eips[i] = frame[1];              /* saved %eip */
  1028e4:	8b 58 04             	mov    0x4(%eax),%ebx
  1028e7:	89 1c 8a             	mov    %ebx,(%edx,%ecx,4)
        frame = (uintptr_t *) frame[0];  /* saved %ebp */
  1028ea:	8b 00                	mov    (%eax),%eax
    for (i = 0; i < DEBUG_TRACEFRAMES && frame; i++) {
  1028ec:	83 c1 01             	add    $0x1,%ecx
  1028ef:	83 f9 09             	cmp    $0x9,%ecx
  1028f2:	0f 9e c3             	setle  %bl
  1028f5:	85 c0                	test   %eax,%eax
  1028f7:	74 10                	je     102909 <debug_trace+0x2d>
  1028f9:	84 db                	test   %bl,%bl
  1028fb:	75 e7                	jne    1028e4 <debug_trace+0x8>
  1028fd:	eb 0a                	jmp    102909 <debug_trace+0x2d>
    }
    for (; i < DEBUG_TRACEFRAMES; i++)
        eips[i] = 0;
  1028ff:	c7 04 8a 00 00 00 00 	movl   $0x0,(%edx,%ecx,4)
    for (; i < DEBUG_TRACEFRAMES; i++)
  102906:	83 c1 01             	add    $0x1,%ecx
  102909:	83 f9 09             	cmp    $0x9,%ecx
  10290c:	7e f1                	jle    1028ff <debug_trace+0x23>
}
  10290e:	5b                   	pop    %ebx
  10290f:	c3                   	ret    

00102910 <debug_info>:
{
  102910:	53                   	push   %ebx
  102911:	83 ec 08             	sub    $0x8,%esp
  102914:	e8 f3 d9 ff ff       	call   10030c <__x86.get_pc_thunk.bx>
  102919:	81 c3 e7 86 00 00    	add    $0x86e7,%ebx
    va_start(ap, fmt);
  10291f:	8d 44 24 14          	lea    0x14(%esp),%eax
    vdprintf(fmt, ap);
  102923:	83 ec 08             	sub    $0x8,%esp
  102926:	50                   	push   %eax
  102927:	ff 74 24 1c          	push   0x1c(%esp)
  10292b:	e8 72 01 00 00       	call   102aa2 <vdprintf>
}
  102930:	83 c4 18             	add    $0x18,%esp
  102933:	5b                   	pop    %ebx
  102934:	c3                   	ret    

00102935 <debug_normal>:
{
  102935:	53                   	push   %ebx
  102936:	83 ec 0c             	sub    $0xc,%esp
  102939:	e8 ce d9 ff ff       	call   10030c <__x86.get_pc_thunk.bx>
  10293e:	81 c3 c2 86 00 00    	add    $0x86c2,%ebx
    dprintf("[D] %s:%d: ", file, line);
  102944:	ff 74 24 18          	push   0x18(%esp)
  102948:	ff 74 24 18          	push   0x18(%esp)
  10294c:	8d 83 f4 b3 ff ff    	lea    -0x4c0c(%ebx),%eax
  102952:	50                   	push   %eax
  102953:	e8 a9 01 00 00       	call   102b01 <dprintf>
    va_start(ap, fmt);
  102958:	8d 44 24 2c          	lea    0x2c(%esp),%eax
    vdprintf(fmt, ap);
  10295c:	83 c4 08             	add    $0x8,%esp
  10295f:	50                   	push   %eax
  102960:	ff 74 24 24          	push   0x24(%esp)
  102964:	e8 39 01 00 00       	call   102aa2 <vdprintf>
}
  102969:	83 c4 18             	add    $0x18,%esp
  10296c:	5b                   	pop    %ebx
  10296d:	c3                   	ret    

0010296e <debug_panic>:

gcc_noinline void debug_panic(const char *file, int line, const char *fmt, ...)
{
  10296e:	56                   	push   %esi
  10296f:	53                   	push   %ebx
  102970:	83 ec 38             	sub    $0x38,%esp
  102973:	e8 94 d9 ff ff       	call   10030c <__x86.get_pc_thunk.bx>
  102978:	81 c3 88 86 00 00    	add    $0x8688,%ebx
    int i;
    uintptr_t eips[DEBUG_TRACEFRAMES];
    va_list ap;

    dprintf("[P] %s:%d: ", file, line);
  10297e:	ff 74 24 48          	push   0x48(%esp)
  102982:	ff 74 24 48          	push   0x48(%esp)
  102986:	8d 83 00 b4 ff ff    	lea    -0x4c00(%ebx),%eax
  10298c:	50                   	push   %eax
  10298d:	e8 6f 01 00 00       	call   102b01 <dprintf>

    va_start(ap, fmt);
  102992:	8d 44 24 5c          	lea    0x5c(%esp),%eax
    vdprintf(fmt, ap);
  102996:	83 c4 08             	add    $0x8,%esp
  102999:	50                   	push   %eax
  10299a:	ff 74 24 54          	push   0x54(%esp)
  10299e:	e8 ff 00 00 00       	call   102aa2 <vdprintf>
#define MAX_CHILDREN 3

static inline uint32_t __attribute__ ((always_inline)) read_ebp(void)
{
    uint32_t ebp;
    __asm __volatile ("movl %%ebp,%0" : "=rm" (ebp));
  1029a3:	89 e8                	mov    %ebp,%eax
    va_end(ap);

    debug_trace(read_ebp(), eips);
  1029a5:	8d 54 24 18          	lea    0x18(%esp),%edx
  1029a9:	e8 2e ff ff ff       	call   1028dc <debug_trace>
    for (i = 0; i < DEBUG_TRACEFRAMES && eips[i] != 0; i++)
  1029ae:	83 c4 10             	add    $0x10,%esp
  1029b1:	be 00 00 00 00       	mov    $0x0,%esi
  1029b6:	83 fe 09             	cmp    $0x9,%esi
  1029b9:	7f 20                	jg     1029db <debug_panic+0x6d>
  1029bb:	8b 44 b4 08          	mov    0x8(%esp,%esi,4),%eax
  1029bf:	85 c0                	test   %eax,%eax
  1029c1:	74 18                	je     1029db <debug_panic+0x6d>
        dprintf("\tfrom 0x%08x\n", eips[i]);
  1029c3:	83 ec 08             	sub    $0x8,%esp
  1029c6:	50                   	push   %eax
  1029c7:	8d 83 0c b4 ff ff    	lea    -0x4bf4(%ebx),%eax
  1029cd:	50                   	push   %eax
  1029ce:	e8 2e 01 00 00       	call   102b01 <dprintf>
    for (i = 0; i < DEBUG_TRACEFRAMES && eips[i] != 0; i++)
  1029d3:	83 c6 01             	add    $0x1,%esi
  1029d6:	83 c4 10             	add    $0x10,%esp
  1029d9:	eb db                	jmp    1029b6 <debug_panic+0x48>

    dprintf("Kernel Panic !!!\n");
  1029db:	83 ec 0c             	sub    $0xc,%esp
  1029de:	8d 83 1a b4 ff ff    	lea    -0x4be6(%ebx),%eax
  1029e4:	50                   	push   %eax
  1029e5:	e8 17 01 00 00       	call   102b01 <dprintf>

    halt();
  1029ea:	e8 d4 0a 00 00       	call   1034c3 <halt>
}
  1029ef:	83 c4 44             	add    $0x44,%esp
  1029f2:	5b                   	pop    %ebx
  1029f3:	5e                   	pop    %esi
  1029f4:	c3                   	ret    

001029f5 <debug_warn>:

void debug_warn(const char *file, int line, const char *fmt, ...)
{
  1029f5:	53                   	push   %ebx
  1029f6:	83 ec 0c             	sub    $0xc,%esp
  1029f9:	e8 0e d9 ff ff       	call   10030c <__x86.get_pc_thunk.bx>
  1029fe:	81 c3 02 86 00 00    	add    $0x8602,%ebx
    dprintf("[W] %s:%d: ", file, line);
  102a04:	ff 74 24 18          	push   0x18(%esp)
  102a08:	ff 74 24 18          	push   0x18(%esp)
  102a0c:	8d 83 2c b4 ff ff    	lea    -0x4bd4(%ebx),%eax
  102a12:	50                   	push   %eax
  102a13:	e8 e9 00 00 00       	call   102b01 <dprintf>

    va_list ap;
    va_start(ap, fmt);
  102a18:	8d 44 24 2c          	lea    0x2c(%esp),%eax
    vdprintf(fmt, ap);
  102a1c:	83 c4 08             	add    $0x8,%esp
  102a1f:	50                   	push   %eax
  102a20:	ff 74 24 24          	push   0x24(%esp)
  102a24:	e8 79 00 00 00       	call   102aa2 <vdprintf>
    va_end(ap);
}
  102a29:	83 c4 18             	add    $0x18,%esp
  102a2c:	5b                   	pop    %ebx
  102a2d:	c3                   	ret    

00102a2e <cputs>:
    int cnt;  /* total bytes printed so far */
    char buf[CONSOLE_BUFFER_SIZE];
};

static void cputs(const char *str)
{
  102a2e:	56                   	push   %esi
  102a2f:	53                   	push   %ebx
  102a30:	83 ec 04             	sub    $0x4,%esp
  102a33:	e8 d4 d8 ff ff       	call   10030c <__x86.get_pc_thunk.bx>
  102a38:	81 c3 c8 85 00 00    	add    $0x85c8,%ebx
  102a3e:	89 c6                	mov    %eax,%esi
    while (*str) {
  102a40:	eb 12                	jmp    102a54 <cputs+0x26>
        cons_putc(*str);
  102a42:	83 ec 0c             	sub    $0xc,%esp
  102a45:	0f be c0             	movsbl %al,%eax
  102a48:	50                   	push   %eax
  102a49:	e8 98 d9 ff ff       	call   1003e6 <cons_putc>
        str += 1;
  102a4e:	83 c6 01             	add    $0x1,%esi
  102a51:	83 c4 10             	add    $0x10,%esp
    while (*str) {
  102a54:	0f b6 06             	movzbl (%esi),%eax
  102a57:	84 c0                	test   %al,%al
  102a59:	75 e7                	jne    102a42 <cputs+0x14>
    }
}
  102a5b:	83 c4 04             	add    $0x4,%esp
  102a5e:	5b                   	pop    %ebx
  102a5f:	5e                   	pop    %esi
  102a60:	c3                   	ret    

00102a61 <putch>:

static void putch(int ch, struct dprintbuf *b)
{
  102a61:	53                   	push   %ebx
  102a62:	83 ec 08             	sub    $0x8,%esp
  102a65:	8b 5c 24 14          	mov    0x14(%esp),%ebx
    b->buf[b->idx++] = ch;
  102a69:	8b 13                	mov    (%ebx),%edx
  102a6b:	8d 42 01             	lea    0x1(%edx),%eax
  102a6e:	89 03                	mov    %eax,(%ebx)
  102a70:	8b 4c 24 10          	mov    0x10(%esp),%ecx
  102a74:	88 4c 13 08          	mov    %cl,0x8(%ebx,%edx,1)
    if (b->idx == CONSOLE_BUFFER_SIZE - 1) {
  102a78:	3d ff 01 00 00       	cmp    $0x1ff,%eax
  102a7d:	74 0e                	je     102a8d <putch+0x2c>
        b->buf[b->idx] = 0;
        cputs(b->buf);
        b->idx = 0;
    }
    b->cnt++;
  102a7f:	8b 43 04             	mov    0x4(%ebx),%eax
  102a82:	83 c0 01             	add    $0x1,%eax
  102a85:	89 43 04             	mov    %eax,0x4(%ebx)
}
  102a88:	83 c4 08             	add    $0x8,%esp
  102a8b:	5b                   	pop    %ebx
  102a8c:	c3                   	ret    
        b->buf[b->idx] = 0;
  102a8d:	c6 44 13 09 00       	movb   $0x0,0x9(%ebx,%edx,1)
        cputs(b->buf);
  102a92:	8d 43 08             	lea    0x8(%ebx),%eax
  102a95:	e8 94 ff ff ff       	call   102a2e <cputs>
        b->idx = 0;
  102a9a:	c7 03 00 00 00 00    	movl   $0x0,(%ebx)
  102aa0:	eb dd                	jmp    102a7f <putch+0x1e>

00102aa2 <vdprintf>:

int vdprintf(const char *fmt, va_list ap)
{
  102aa2:	53                   	push   %ebx
  102aa3:	81 ec 18 02 00 00    	sub    $0x218,%esp
  102aa9:	e8 5e d8 ff ff       	call   10030c <__x86.get_pc_thunk.bx>
  102aae:	81 c3 52 85 00 00    	add    $0x8552,%ebx
    struct dprintbuf b;

    b.idx = 0;
  102ab4:	c7 44 24 08 00 00 00 	movl   $0x0,0x8(%esp)
  102abb:	00 
    b.cnt = 0;
  102abc:	c7 44 24 0c 00 00 00 	movl   $0x0,0xc(%esp)
  102ac3:	00 
    vprintfmt((void *) putch, &b, fmt, ap);
  102ac4:	ff b4 24 24 02 00 00 	push   0x224(%esp)
  102acb:	ff b4 24 24 02 00 00 	push   0x224(%esp)
  102ad2:	8d 44 24 10          	lea    0x10(%esp),%eax
  102ad6:	50                   	push   %eax
  102ad7:	8d 83 61 7a ff ff    	lea    -0x859f(%ebx),%eax
  102add:	50                   	push   %eax
  102ade:	e8 5d 01 00 00       	call   102c40 <vprintfmt>

    b.buf[b.idx] = 0;
  102ae3:	8b 44 24 18          	mov    0x18(%esp),%eax
  102ae7:	c6 44 04 20 00       	movb   $0x0,0x20(%esp,%eax,1)
    cputs(b.buf);
  102aec:	8d 44 24 20          	lea    0x20(%esp),%eax
  102af0:	e8 39 ff ff ff       	call   102a2e <cputs>

    return b.cnt;
}
  102af5:	8b 44 24 1c          	mov    0x1c(%esp),%eax
  102af9:	81 c4 28 02 00 00    	add    $0x228,%esp
  102aff:	5b                   	pop    %ebx
  102b00:	c3                   	ret    

00102b01 <dprintf>:

int dprintf(const char *fmt, ...)
{
  102b01:	83 ec 0c             	sub    $0xc,%esp
    va_list ap;
    int cnt;

    va_start(ap, fmt);
  102b04:	8d 44 24 14          	lea    0x14(%esp),%eax
    cnt = vdprintf(fmt, ap);
  102b08:	83 ec 08             	sub    $0x8,%esp
  102b0b:	50                   	push   %eax
  102b0c:	ff 74 24 1c          	push   0x1c(%esp)
  102b10:	e8 8d ff ff ff       	call   102aa2 <vdprintf>
    va_end(ap);

    return cnt;
}
  102b15:	83 c4 1c             	add    $0x1c,%esp
  102b18:	c3                   	ret    

00102b19 <printnum>:
 * Print a number (base <= 16) in reverse order,
 * using specified putch function and associated pointer putdat.
 */
static void printnum(putch_t putch, void *putdat, unsigned long long num,
                     unsigned base, int width, int padc)
{
  102b19:	55                   	push   %ebp
  102b1a:	57                   	push   %edi
  102b1b:	56                   	push   %esi
  102b1c:	53                   	push   %ebx
  102b1d:	83 ec 2c             	sub    $0x2c,%esp
  102b20:	e8 e3 d7 ff ff       	call   100308 <__x86.get_pc_thunk.cx>
  102b25:	81 c1 db 84 00 00    	add    $0x84db,%ecx
  102b2b:	89 4c 24 14          	mov    %ecx,0x14(%esp)
  102b2f:	89 c6                	mov    %eax,%esi
  102b31:	89 d7                	mov    %edx,%edi
  102b33:	8b 44 24 40          	mov    0x40(%esp),%eax
  102b37:	8b 54 24 44          	mov    0x44(%esp),%edx
  102b3b:	89 d1                	mov    %edx,%ecx
  102b3d:	89 c2                	mov    %eax,%edx
  102b3f:	89 44 24 18          	mov    %eax,0x18(%esp)
  102b43:	89 4c 24 1c          	mov    %ecx,0x1c(%esp)
  102b47:	8b 44 24 48          	mov    0x48(%esp),%eax
  102b4b:	8b 5c 24 4c          	mov    0x4c(%esp),%ebx
  102b4f:	8b 6c 24 50          	mov    0x50(%esp),%ebp
    /* first recursively print all preceding (more significant) digits */
    if (num >= base) {
  102b53:	89 44 24 08          	mov    %eax,0x8(%esp)
  102b57:	c7 44 24 0c 00 00 00 	movl   $0x0,0xc(%esp)
  102b5e:	00 
  102b5f:	39 c2                	cmp    %eax,%edx
  102b61:	1b 4c 24 0c          	sbb    0xc(%esp),%ecx
  102b65:	72 42                	jb     102ba9 <printnum+0x90>
        printnum(putch, putdat, num / base, base, width - 1, padc);
  102b67:	83 ec 0c             	sub    $0xc,%esp
  102b6a:	55                   	push   %ebp
  102b6b:	83 eb 01             	sub    $0x1,%ebx
  102b6e:	53                   	push   %ebx
  102b6f:	50                   	push   %eax
  102b70:	83 ec 08             	sub    $0x8,%esp
  102b73:	ff 74 24 2c          	push   0x2c(%esp)
  102b77:	ff 74 24 2c          	push   0x2c(%esp)
  102b7b:	ff 74 24 44          	push   0x44(%esp)
  102b7f:	ff 74 24 44          	push   0x44(%esp)
  102b83:	8b 5c 24 44          	mov    0x44(%esp),%ebx
  102b87:	e8 d4 29 00 00       	call   105560 <__udivdi3>
  102b8c:	83 c4 18             	add    $0x18,%esp
  102b8f:	52                   	push   %edx
  102b90:	50                   	push   %eax
  102b91:	89 fa                	mov    %edi,%edx
  102b93:	89 f0                	mov    %esi,%eax
  102b95:	e8 7f ff ff ff       	call   102b19 <printnum>
  102b9a:	83 c4 20             	add    $0x20,%esp
  102b9d:	eb 11                	jmp    102bb0 <printnum+0x97>
    } else {
        /* print any needed pad characters before first digit */
        while (--width > 0)
            putch(padc, putdat);
  102b9f:	83 ec 08             	sub    $0x8,%esp
  102ba2:	57                   	push   %edi
  102ba3:	55                   	push   %ebp
  102ba4:	ff d6                	call   *%esi
  102ba6:	83 c4 10             	add    $0x10,%esp
        while (--width > 0)
  102ba9:	83 eb 01             	sub    $0x1,%ebx
  102bac:	85 db                	test   %ebx,%ebx
  102bae:	7f ef                	jg     102b9f <printnum+0x86>
    }

    // then print this (the least significant) digit
    putch("0123456789abcdef"[num % base], putdat);
  102bb0:	ff 74 24 0c          	push   0xc(%esp)
  102bb4:	ff 74 24 0c          	push   0xc(%esp)
  102bb8:	ff 74 24 24          	push   0x24(%esp)
  102bbc:	ff 74 24 24          	push   0x24(%esp)
  102bc0:	8b 5c 24 24          	mov    0x24(%esp),%ebx
  102bc4:	e8 b7 2a 00 00       	call   105680 <__umoddi3>
  102bc9:	83 c4 08             	add    $0x8,%esp
  102bcc:	57                   	push   %edi
  102bcd:	0f be 84 03 38 b4 ff 	movsbl -0x4bc8(%ebx,%eax,1),%eax
  102bd4:	ff 
  102bd5:	50                   	push   %eax
  102bd6:	ff d6                	call   *%esi
}
  102bd8:	83 c4 3c             	add    $0x3c,%esp
  102bdb:	5b                   	pop    %ebx
  102bdc:	5e                   	pop    %esi
  102bdd:	5f                   	pop    %edi
  102bde:	5d                   	pop    %ebp
  102bdf:	c3                   	ret    

00102be0 <getuint>:
 * Get an unsigned int of various possible sizes from a varargs list,
 * depending on the lflag parameter.
 */
static unsigned long long getuint(va_list *ap, int lflag)
{
    if (lflag >= 2)
  102be0:	83 fa 01             	cmp    $0x1,%edx
  102be3:	7f 13                	jg     102bf8 <getuint+0x18>
        return va_arg(*ap, unsigned long long);
    else if (lflag)
  102be5:	85 d2                	test   %edx,%edx
  102be7:	74 1c                	je     102c05 <getuint+0x25>
        return va_arg(*ap, unsigned long);
  102be9:	8b 10                	mov    (%eax),%edx
  102beb:	8d 4a 04             	lea    0x4(%edx),%ecx
  102bee:	89 08                	mov    %ecx,(%eax)
  102bf0:	8b 02                	mov    (%edx),%eax
  102bf2:	ba 00 00 00 00       	mov    $0x0,%edx
  102bf7:	c3                   	ret    
        return va_arg(*ap, unsigned long long);
  102bf8:	8b 10                	mov    (%eax),%edx
  102bfa:	8d 4a 08             	lea    0x8(%edx),%ecx
  102bfd:	89 08                	mov    %ecx,(%eax)
  102bff:	8b 02                	mov    (%edx),%eax
  102c01:	8b 52 04             	mov    0x4(%edx),%edx
  102c04:	c3                   	ret    
    else
        return va_arg(*ap, unsigned int);
  102c05:	8b 10                	mov    (%eax),%edx
  102c07:	8d 4a 04             	lea    0x4(%edx),%ecx
  102c0a:	89 08                	mov    %ecx,(%eax)
  102c0c:	8b 02                	mov    (%edx),%eax
  102c0e:	ba 00 00 00 00       	mov    $0x0,%edx
}
  102c13:	c3                   	ret    

00102c14 <getint>:
 * Same as getuint but signed - can't use getuint
 * because of sign extension
 */
static long long getint(va_list *ap, int lflag)
{
    if (lflag >= 2)
  102c14:	83 fa 01             	cmp    $0x1,%edx
  102c17:	7f 0f                	jg     102c28 <getint+0x14>
        return va_arg(*ap, long long);
    else if (lflag)
  102c19:	85 d2                	test   %edx,%edx
  102c1b:	74 18                	je     102c35 <getint+0x21>
        return va_arg(*ap, long);
  102c1d:	8b 10                	mov    (%eax),%edx
  102c1f:	8d 4a 04             	lea    0x4(%edx),%ecx
  102c22:	89 08                	mov    %ecx,(%eax)
  102c24:	8b 02                	mov    (%edx),%eax
  102c26:	99                   	cltd   
  102c27:	c3                   	ret    
        return va_arg(*ap, long long);
  102c28:	8b 10                	mov    (%eax),%edx
  102c2a:	8d 4a 08             	lea    0x8(%edx),%ecx
  102c2d:	89 08                	mov    %ecx,(%eax)
  102c2f:	8b 02                	mov    (%edx),%eax
  102c31:	8b 52 04             	mov    0x4(%edx),%edx
  102c34:	c3                   	ret    
    else
        return va_arg(*ap, int);
  102c35:	8b 10                	mov    (%eax),%edx
  102c37:	8d 4a 04             	lea    0x4(%edx),%ecx
  102c3a:	89 08                	mov    %ecx,(%eax)
  102c3c:	8b 02                	mov    (%edx),%eax
  102c3e:	99                   	cltd   
}
  102c3f:	c3                   	ret    

00102c40 <vprintfmt>:

void vprintfmt(putch_t putch, void *putdat, const char *fmt, va_list ap)
{
  102c40:	55                   	push   %ebp
  102c41:	57                   	push   %edi
  102c42:	56                   	push   %esi
  102c43:	53                   	push   %ebx
  102c44:	83 ec 2c             	sub    $0x2c,%esp
  102c47:	e8 7c e1 ff ff       	call   100dc8 <__x86.get_pc_thunk.ax>
  102c4c:	05 b4 83 00 00       	add    $0x83b4,%eax
  102c51:	89 44 24 10          	mov    %eax,0x10(%esp)
  102c55:	8b 74 24 40          	mov    0x40(%esp),%esi
  102c59:	8b 7c 24 44          	mov    0x44(%esp),%edi
  102c5d:	8b 6c 24 48          	mov    0x48(%esp),%ebp
  102c61:	eb 0c                	jmp    102c6f <vprintfmt+0x2f>

    while (1) {
        while ((ch = *(unsigned char *) fmt++) != '%') {
            if (ch == '\0')
                return;
            putch(ch, putdat);
  102c63:	83 ec 08             	sub    $0x8,%esp
  102c66:	57                   	push   %edi
  102c67:	50                   	push   %eax
  102c68:	ff d6                	call   *%esi
  102c6a:	83 c4 10             	add    $0x10,%esp
        while ((ch = *(unsigned char *) fmt++) != '%') {
  102c6d:	89 dd                	mov    %ebx,%ebp
  102c6f:	8d 5d 01             	lea    0x1(%ebp),%ebx
  102c72:	0f b6 45 00          	movzbl 0x0(%ebp),%eax
  102c76:	83 f8 25             	cmp    $0x25,%eax
  102c79:	74 0c                	je     102c87 <vprintfmt+0x47>
            if (ch == '\0')
  102c7b:	85 c0                	test   %eax,%eax
  102c7d:	75 e4                	jne    102c63 <vprintfmt+0x23>
            for (fmt--; fmt[-1] != '%'; fmt--)
                /* do nothing */ ;
            break;
        }
    }
}
  102c7f:	83 c4 2c             	add    $0x2c,%esp
  102c82:	5b                   	pop    %ebx
  102c83:	5e                   	pop    %esi
  102c84:	5f                   	pop    %edi
  102c85:	5d                   	pop    %ebp
  102c86:	c3                   	ret    
        padc = ' ';
  102c87:	c6 44 24 1b 20       	movb   $0x20,0x1b(%esp)
        altflag = 0;
  102c8c:	c7 04 24 00 00 00 00 	movl   $0x0,(%esp)
        precision = -1;
  102c93:	c7 44 24 1c ff ff ff 	movl   $0xffffffff,0x1c(%esp)
  102c9a:	ff 
        width = -1;
  102c9b:	c7 44 24 0c ff ff ff 	movl   $0xffffffff,0xc(%esp)
  102ca2:	ff 
        lflag = 0;
  102ca3:	b9 00 00 00 00       	mov    $0x0,%ecx
  102ca8:	89 4c 24 14          	mov    %ecx,0x14(%esp)
        switch (ch = *(unsigned char *) fmt++) {
  102cac:	8d 6b 01             	lea    0x1(%ebx),%ebp
  102caf:	0f b6 03             	movzbl (%ebx),%eax
  102cb2:	0f b6 c8             	movzbl %al,%ecx
  102cb5:	89 4c 24 08          	mov    %ecx,0x8(%esp)
  102cb9:	83 e8 23             	sub    $0x23,%eax
  102cbc:	3c 55                	cmp    $0x55,%al
  102cbe:	0f 87 b2 02 00 00    	ja     102f76 <.L25>
  102cc4:	0f b6 c0             	movzbl %al,%eax
  102cc7:	8b 4c 24 10          	mov    0x10(%esp),%ecx
  102ccb:	89 ca                	mov    %ecx,%edx
  102ccd:	03 94 81 50 b4 ff ff 	add    -0x4bb0(%ecx,%eax,4),%edx
  102cd4:	ff e2                	jmp    *%edx

00102cd6 <.L23>:
  102cd6:	89 eb                	mov    %ebp,%ebx
  102cd8:	c6 44 24 1b 2d       	movb   $0x2d,0x1b(%esp)
  102cdd:	eb cd                	jmp    102cac <vprintfmt+0x6c>

00102cdf <.L59>:
  102cdf:	89 eb                	mov    %ebp,%ebx
            padc = '0';
  102ce1:	c6 44 24 1b 30       	movb   $0x30,0x1b(%esp)
  102ce6:	eb c4                	jmp    102cac <vprintfmt+0x6c>

00102ce8 <.L60>:
        switch (ch = *(unsigned char *) fmt++) {
  102ce8:	b8 00 00 00 00       	mov    $0x0,%eax
  102ced:	8b 4c 24 14          	mov    0x14(%esp),%ecx
  102cf1:	8b 54 24 08          	mov    0x8(%esp),%edx
                precision = precision * 10 + ch - '0';
  102cf5:	8d 04 80             	lea    (%eax,%eax,4),%eax
  102cf8:	8d 44 42 d0          	lea    -0x30(%edx,%eax,2),%eax
                ch = *fmt;
  102cfc:	0f be 55 00          	movsbl 0x0(%ebp),%edx
                if (ch < '0' || ch > '9')
  102d00:	8d 5a d0             	lea    -0x30(%edx),%ebx
  102d03:	83 fb 09             	cmp    $0x9,%ebx
  102d06:	77 5a                	ja     102d62 <.L38+0xe>
            for (precision = 0;; ++fmt) {
  102d08:	83 c5 01             	add    $0x1,%ebp
                precision = precision * 10 + ch - '0';
  102d0b:	eb e8                	jmp    102cf5 <.L60+0xd>

00102d0d <.L36>:
            precision = va_arg(ap, int);
  102d0d:	8b 44 24 4c          	mov    0x4c(%esp),%eax
  102d11:	8d 50 04             	lea    0x4(%eax),%edx
  102d14:	89 54 24 4c          	mov    %edx,0x4c(%esp)
  102d18:	8b 00                	mov    (%eax),%eax
  102d1a:	89 44 24 1c          	mov    %eax,0x1c(%esp)
        switch (ch = *(unsigned char *) fmt++) {
  102d1e:	89 eb                	mov    %ebp,%ebx
            if (width < 0)
  102d20:	83 7c 24 0c 00       	cmpl   $0x0,0xc(%esp)
  102d25:	79 85                	jns    102cac <vprintfmt+0x6c>
                width = precision, precision = -1;
  102d27:	8b 44 24 1c          	mov    0x1c(%esp),%eax
  102d2b:	89 44 24 0c          	mov    %eax,0xc(%esp)
  102d2f:	c7 44 24 1c ff ff ff 	movl   $0xffffffff,0x1c(%esp)
  102d36:	ff 
            goto reswitch;
  102d37:	e9 70 ff ff ff       	jmp    102cac <vprintfmt+0x6c>

00102d3c <.L35>:
            if (width < 0)
  102d3c:	83 7c 24 0c 00       	cmpl   $0x0,0xc(%esp)
  102d41:	78 07                	js     102d4a <.L35+0xe>
        switch (ch = *(unsigned char *) fmt++) {
  102d43:	89 eb                	mov    %ebp,%ebx
            goto reswitch;
  102d45:	e9 62 ff ff ff       	jmp    102cac <vprintfmt+0x6c>
                width = 0;
  102d4a:	c7 44 24 0c 00 00 00 	movl   $0x0,0xc(%esp)
  102d51:	00 
  102d52:	eb ef                	jmp    102d43 <.L35+0x7>

00102d54 <.L38>:
        switch (ch = *(unsigned char *) fmt++) {
  102d54:	89 eb                	mov    %ebp,%ebx
            altflag = 1;
  102d56:	c7 04 24 01 00 00 00 	movl   $0x1,(%esp)
            goto reswitch;
  102d5d:	e9 4a ff ff ff       	jmp    102cac <vprintfmt+0x6c>
  102d62:	89 4c 24 14          	mov    %ecx,0x14(%esp)
  102d66:	89 44 24 1c          	mov    %eax,0x1c(%esp)
  102d6a:	89 eb                	mov    %ebp,%ebx
  102d6c:	eb b2                	jmp    102d20 <.L36+0x13>

00102d6e <.L31>:
            lflag++;
  102d6e:	83 44 24 14 01       	addl   $0x1,0x14(%esp)
        switch (ch = *(unsigned char *) fmt++) {
  102d73:	89 eb                	mov    %ebp,%ebx
            goto reswitch;
  102d75:	e9 32 ff ff ff       	jmp    102cac <vprintfmt+0x6c>

00102d7a <.L33>:
            putch(va_arg(ap, int), putdat);
  102d7a:	8b 44 24 4c          	mov    0x4c(%esp),%eax
  102d7e:	8d 50 04             	lea    0x4(%eax),%edx
  102d81:	89 54 24 4c          	mov    %edx,0x4c(%esp)
  102d85:	83 ec 08             	sub    $0x8,%esp
  102d88:	57                   	push   %edi
  102d89:	ff 30                	push   (%eax)
  102d8b:	ff d6                	call   *%esi
            break;
  102d8d:	83 c4 10             	add    $0x10,%esp
  102d90:	e9 da fe ff ff       	jmp    102c6f <vprintfmt+0x2f>

00102d95 <.L29>:
            if ((p = va_arg(ap, char *)) == NULL)
  102d95:	8b 44 24 4c          	mov    0x4c(%esp),%eax
  102d99:	8d 50 04             	lea    0x4(%eax),%edx
  102d9c:	89 54 24 4c          	mov    %edx,0x4c(%esp)
  102da0:	8b 00                	mov    (%eax),%eax
  102da2:	89 44 24 08          	mov    %eax,0x8(%esp)
  102da6:	85 c0                	test   %eax,%eax
  102da8:	74 2a                	je     102dd4 <.L29+0x3f>
            if (width > 0 && padc != '-')
  102daa:	83 7c 24 0c 00       	cmpl   $0x0,0xc(%esp)
  102daf:	0f 9f c2             	setg   %dl
  102db2:	80 7c 24 1b 2d       	cmpb   $0x2d,0x1b(%esp)
  102db7:	0f 95 c0             	setne  %al
  102dba:	84 c2                	test   %al,%dl
  102dbc:	75 26                	jne    102de4 <.L29+0x4f>
  102dbe:	8b 44 24 08          	mov    0x8(%esp),%eax
  102dc2:	8b 5c 24 1c          	mov    0x1c(%esp),%ebx
  102dc6:	89 74 24 40          	mov    %esi,0x40(%esp)
  102dca:	89 6c 24 48          	mov    %ebp,0x48(%esp)
  102dce:	8b 6c 24 0c          	mov    0xc(%esp),%ebp
  102dd2:	eb 70                	jmp    102e44 <.L29+0xaf>
                p = "(null)";
  102dd4:	8b 44 24 10          	mov    0x10(%esp),%eax
  102dd8:	8d 80 49 b4 ff ff    	lea    -0x4bb7(%eax),%eax
  102dde:	89 44 24 08          	mov    %eax,0x8(%esp)
  102de2:	eb c6                	jmp    102daa <.L29+0x15>
                for (width -= strnlen(p, precision); width > 0; width--)
  102de4:	83 ec 08             	sub    $0x8,%esp
  102de7:	ff 74 24 24          	push   0x24(%esp)
  102deb:	ff 74 24 14          	push   0x14(%esp)
  102def:	8b 5c 24 20          	mov    0x20(%esp),%ebx
  102df3:	e8 68 fa ff ff       	call   102860 <strnlen>
  102df8:	29 44 24 1c          	sub    %eax,0x1c(%esp)
  102dfc:	8b 54 24 1c          	mov    0x1c(%esp),%edx
  102e00:	83 c4 10             	add    $0x10,%esp
  102e03:	89 d3                	mov    %edx,%ebx
  102e05:	eb 12                	jmp    102e19 <.L29+0x84>
                    putch(padc, putdat);
  102e07:	83 ec 08             	sub    $0x8,%esp
  102e0a:	57                   	push   %edi
  102e0b:	0f be 44 24 27       	movsbl 0x27(%esp),%eax
  102e10:	50                   	push   %eax
  102e11:	ff d6                	call   *%esi
                for (width -= strnlen(p, precision); width > 0; width--)
  102e13:	83 eb 01             	sub    $0x1,%ebx
  102e16:	83 c4 10             	add    $0x10,%esp
  102e19:	85 db                	test   %ebx,%ebx
  102e1b:	7f ea                	jg     102e07 <.L29+0x72>
  102e1d:	89 da                	mov    %ebx,%edx
  102e1f:	8b 44 24 08          	mov    0x8(%esp),%eax
  102e23:	8b 5c 24 1c          	mov    0x1c(%esp),%ebx
  102e27:	89 74 24 40          	mov    %esi,0x40(%esp)
  102e2b:	89 6c 24 48          	mov    %ebp,0x48(%esp)
  102e2f:	89 d5                	mov    %edx,%ebp
  102e31:	eb 11                	jmp    102e44 <.L29+0xaf>
                    putch(ch, putdat);
  102e33:	83 ec 08             	sub    $0x8,%esp
  102e36:	57                   	push   %edi
  102e37:	52                   	push   %edx
  102e38:	ff 54 24 50          	call   *0x50(%esp)
  102e3c:	83 c4 10             	add    $0x10,%esp
                 width--)
  102e3f:	83 ed 01             	sub    $0x1,%ebp
                 (ch = *p++) != '\0' && (precision < 0 || --precision >= 0);
  102e42:	89 f0                	mov    %esi,%eax
  102e44:	8d 70 01             	lea    0x1(%eax),%esi
  102e47:	0f b6 00             	movzbl (%eax),%eax
  102e4a:	0f be d0             	movsbl %al,%edx
  102e4d:	85 d2                	test   %edx,%edx
  102e4f:	74 4c                	je     102e9d <.L29+0x108>
  102e51:	85 db                	test   %ebx,%ebx
  102e53:	78 05                	js     102e5a <.L29+0xc5>
  102e55:	83 eb 01             	sub    $0x1,%ebx
  102e58:	78 20                	js     102e7a <.L29+0xe5>
                if (altflag && (ch < ' ' || ch > '~'))
  102e5a:	83 3c 24 00          	cmpl   $0x0,(%esp)
  102e5e:	74 d3                	je     102e33 <.L29+0x9e>
  102e60:	0f be c0             	movsbl %al,%eax
  102e63:	83 e8 20             	sub    $0x20,%eax
  102e66:	83 f8 5e             	cmp    $0x5e,%eax
  102e69:	76 c8                	jbe    102e33 <.L29+0x9e>
                    putch('?', putdat);
  102e6b:	83 ec 08             	sub    $0x8,%esp
  102e6e:	57                   	push   %edi
  102e6f:	6a 3f                	push   $0x3f
  102e71:	ff 54 24 50          	call   *0x50(%esp)
  102e75:	83 c4 10             	add    $0x10,%esp
  102e78:	eb c5                	jmp    102e3f <.L29+0xaa>
  102e7a:	89 eb                	mov    %ebp,%ebx
  102e7c:	8b 74 24 40          	mov    0x40(%esp),%esi
  102e80:	8b 6c 24 48          	mov    0x48(%esp),%ebp
  102e84:	eb 0e                	jmp    102e94 <.L29+0xff>
                putch(' ', putdat);
  102e86:	83 ec 08             	sub    $0x8,%esp
  102e89:	57                   	push   %edi
  102e8a:	6a 20                	push   $0x20
  102e8c:	ff d6                	call   *%esi
            for (; width > 0; width--)
  102e8e:	83 eb 01             	sub    $0x1,%ebx
  102e91:	83 c4 10             	add    $0x10,%esp
  102e94:	85 db                	test   %ebx,%ebx
  102e96:	7f ee                	jg     102e86 <.L29+0xf1>
  102e98:	e9 d2 fd ff ff       	jmp    102c6f <vprintfmt+0x2f>
  102e9d:	89 eb                	mov    %ebp,%ebx
  102e9f:	8b 74 24 40          	mov    0x40(%esp),%esi
  102ea3:	8b 6c 24 48          	mov    0x48(%esp),%ebp
  102ea7:	eb eb                	jmp    102e94 <.L29+0xff>

00102ea9 <.L32>:
            num = getint(&ap, lflag);
  102ea9:	8b 4c 24 14          	mov    0x14(%esp),%ecx
  102ead:	8d 44 24 4c          	lea    0x4c(%esp),%eax
  102eb1:	89 ca                	mov    %ecx,%edx
  102eb3:	e8 5c fd ff ff       	call   102c14 <getint>
            if ((long long) num < 0) {
  102eb8:	89 04 24             	mov    %eax,(%esp)
  102ebb:	89 54 24 04          	mov    %edx,0x4(%esp)
  102ebf:	83 7c 24 04 00       	cmpl   $0x0,0x4(%esp)
  102ec4:	78 26                	js     102eec <.L32+0x43>
            base = 10;
  102ec6:	bb 0a 00 00 00       	mov    $0xa,%ebx
            printnum(putch, putdat, num, base, width, padc);
  102ecb:	83 ec 0c             	sub    $0xc,%esp
  102ece:	0f be 4c 24 27       	movsbl 0x27(%esp),%ecx
  102ed3:	51                   	push   %ecx
  102ed4:	ff 74 24 1c          	push   0x1c(%esp)
  102ed8:	53                   	push   %ebx
  102ed9:	52                   	push   %edx
  102eda:	50                   	push   %eax
  102edb:	89 fa                	mov    %edi,%edx
  102edd:	89 f0                	mov    %esi,%eax
  102edf:	e8 35 fc ff ff       	call   102b19 <printnum>
            break;
  102ee4:	83 c4 20             	add    $0x20,%esp
  102ee7:	e9 83 fd ff ff       	jmp    102c6f <vprintfmt+0x2f>
                putch('-', putdat);
  102eec:	83 ec 08             	sub    $0x8,%esp
  102eef:	57                   	push   %edi
  102ef0:	6a 2d                	push   $0x2d
  102ef2:	ff d6                	call   *%esi
                num = -(long long) num;
  102ef4:	8b 44 24 10          	mov    0x10(%esp),%eax
  102ef8:	8b 54 24 14          	mov    0x14(%esp),%edx
  102efc:	f7 d8                	neg    %eax
  102efe:	83 d2 00             	adc    $0x0,%edx
  102f01:	f7 da                	neg    %edx
  102f03:	83 c4 10             	add    $0x10,%esp
  102f06:	eb be                	jmp    102ec6 <.L32+0x1d>

00102f08 <.L28>:
            num = getuint(&ap, lflag);
  102f08:	8b 4c 24 14          	mov    0x14(%esp),%ecx
  102f0c:	8d 44 24 4c          	lea    0x4c(%esp),%eax
  102f10:	89 ca                	mov    %ecx,%edx
  102f12:	e8 c9 fc ff ff       	call   102be0 <getuint>
            base = 10;
  102f17:	bb 0a 00 00 00       	mov    $0xa,%ebx
            goto number;
  102f1c:	eb ad                	jmp    102ecb <.L32+0x22>

00102f1e <.L30>:
            putch('0', putdat);
  102f1e:	83 ec 08             	sub    $0x8,%esp
  102f21:	57                   	push   %edi
  102f22:	6a 30                	push   $0x30
  102f24:	ff d6                	call   *%esi
            putch('x', putdat);
  102f26:	83 c4 08             	add    $0x8,%esp
  102f29:	57                   	push   %edi
  102f2a:	6a 78                	push   $0x78
  102f2c:	ff d6                	call   *%esi
            num = (unsigned long long) (uintptr_t) va_arg(ap, void *);
  102f2e:	8b 44 24 5c          	mov    0x5c(%esp),%eax
  102f32:	8d 50 04             	lea    0x4(%eax),%edx
  102f35:	89 54 24 5c          	mov    %edx,0x5c(%esp)
  102f39:	8b 00                	mov    (%eax),%eax
  102f3b:	ba 00 00 00 00       	mov    $0x0,%edx
            goto number;
  102f40:	83 c4 10             	add    $0x10,%esp
            base = 16;
  102f43:	bb 10 00 00 00       	mov    $0x10,%ebx
            goto number;
  102f48:	eb 81                	jmp    102ecb <.L32+0x22>

00102f4a <.L26>:
            num = getuint(&ap, lflag);
  102f4a:	8b 4c 24 14          	mov    0x14(%esp),%ecx
  102f4e:	8d 44 24 4c          	lea    0x4c(%esp),%eax
  102f52:	89 ca                	mov    %ecx,%edx
  102f54:	e8 87 fc ff ff       	call   102be0 <getuint>
            base = 16;
  102f59:	bb 10 00 00 00       	mov    $0x10,%ebx
  102f5e:	e9 68 ff ff ff       	jmp    102ecb <.L32+0x22>

00102f63 <.L37>:
            putch(ch, putdat);
  102f63:	8b 54 24 08          	mov    0x8(%esp),%edx
  102f67:	83 ec 08             	sub    $0x8,%esp
  102f6a:	57                   	push   %edi
  102f6b:	52                   	push   %edx
  102f6c:	ff d6                	call   *%esi
            break;
  102f6e:	83 c4 10             	add    $0x10,%esp
  102f71:	e9 f9 fc ff ff       	jmp    102c6f <vprintfmt+0x2f>

00102f76 <.L25>:
            putch('%', putdat);
  102f76:	83 ec 08             	sub    $0x8,%esp
  102f79:	57                   	push   %edi
  102f7a:	6a 25                	push   $0x25
  102f7c:	ff d6                	call   *%esi
            for (fmt--; fmt[-1] != '%'; fmt--)
  102f7e:	83 c4 10             	add    $0x10,%esp
  102f81:	89 dd                	mov    %ebx,%ebp
  102f83:	eb 03                	jmp    102f88 <.L25+0x12>
  102f85:	83 ed 01             	sub    $0x1,%ebp
  102f88:	80 7d ff 25          	cmpb   $0x25,-0x1(%ebp)
  102f8c:	75 f7                	jne    102f85 <.L25+0xf>
  102f8e:	e9 dc fc ff ff       	jmp    102c6f <vprintfmt+0x2f>

00102f93 <tss_switch>:

segdesc_t gdt_LOC[CPU_GDT_NDESC];
tss_t tss_LOC[64];

void tss_switch(uint32_t pid)
{
  102f93:	57                   	push   %edi
  102f94:	56                   	push   %esi
  102f95:	53                   	push   %ebx
  102f96:	e8 71 d3 ff ff       	call   10030c <__x86.get_pc_thunk.bx>
  102f9b:	81 c3 65 80 00 00    	add    $0x8065,%ebx
    gdt_LOC[CPU_GDT_TSS >> 3] =
        SEGDESC16(STS_T32A, (uint32_t) (&tss_LOC[pid]), sizeof(tss_t) - 1, 0);
  102fa1:	69 44 24 10 ec 00 00 	imul   $0xec,0x10(%esp),%eax
  102fa8:	00 
  102fa9:	8d 84 03 00 a0 02 00 	lea    0x2a000(%ebx,%eax,1),%eax
  102fb0:	89 c2                	mov    %eax,%edx
  102fb2:	c1 ea 10             	shr    $0x10,%edx
  102fb5:	89 c1                	mov    %eax,%ecx
  102fb7:	c1 e9 18             	shr    $0x18,%ecx
  102fba:	89 cf                	mov    %ecx,%edi
    gdt_LOC[CPU_GDT_TSS >> 3] =
  102fbc:	66 c7 83 28 db 02 00 	movw   $0xeb,0x2db28(%ebx)
  102fc3:	eb 00 
  102fc5:	66 89 83 2a db 02 00 	mov    %ax,0x2db2a(%ebx)
  102fcc:	88 93 2c db 02 00    	mov    %dl,0x2db2c(%ebx)
  102fd2:	0f b6 83 2d db 02 00 	movzbl 0x2db2d(%ebx),%eax
  102fd9:	83 e0 f0             	and    $0xfffffff0,%eax
  102fdc:	89 c2                	mov    %eax,%edx
  102fde:	83 ca 09             	or     $0x9,%edx
  102fe1:	88 93 2d db 02 00    	mov    %dl,0x2db2d(%ebx)
  102fe7:	83 c8 19             	or     $0x19,%eax
  102fea:	88 83 2d db 02 00    	mov    %al,0x2db2d(%ebx)
  102ff0:	83 e0 9f             	and    $0xffffff9f,%eax
  102ff3:	88 83 2d db 02 00    	mov    %al,0x2db2d(%ebx)
  102ff9:	83 c8 80             	or     $0xffffff80,%eax
  102ffc:	88 83 2d db 02 00    	mov    %al,0x2db2d(%ebx)
  103002:	0f b6 93 2e db 02 00 	movzbl 0x2db2e(%ebx),%edx
  103009:	89 d6                	mov    %edx,%esi
  10300b:	83 e6 f0             	and    $0xfffffff0,%esi
  10300e:	89 f1                	mov    %esi,%ecx
  103010:	88 8b 2e db 02 00    	mov    %cl,0x2db2e(%ebx)
  103016:	89 d6                	mov    %edx,%esi
  103018:	83 e6 e0             	and    $0xffffffe0,%esi
  10301b:	89 f1                	mov    %esi,%ecx
  10301d:	88 8b 2e db 02 00    	mov    %cl,0x2db2e(%ebx)
  103023:	83 e2 c0             	and    $0xffffffc0,%edx
  103026:	88 93 2e db 02 00    	mov    %dl,0x2db2e(%ebx)
  10302c:	83 ca 40             	or     $0x40,%edx
  10302f:	88 93 2e db 02 00    	mov    %dl,0x2db2e(%ebx)
  103035:	83 e2 7f             	and    $0x7f,%edx
  103038:	88 93 2e db 02 00    	mov    %dl,0x2db2e(%ebx)
  10303e:	89 f9                	mov    %edi,%ecx
  103040:	88 8b 2f db 02 00    	mov    %cl,0x2db2f(%ebx)
    gdt_LOC[CPU_GDT_TSS >> 3].sd_s = 0;
  103046:	83 e0 ef             	and    $0xffffffef,%eax
  103049:	88 83 2d db 02 00    	mov    %al,0x2db2d(%ebx)
    ltr(CPU_GDT_TSS);
  10304f:	83 ec 0c             	sub    $0xc,%esp
  103052:	6a 28                	push   $0x28
  103054:	e8 d2 04 00 00       	call   10352b <ltr>
}
  103059:	83 c4 10             	add    $0x10,%esp
  10305c:	5b                   	pop    %ebx
  10305d:	5e                   	pop    %esi
  10305e:	5f                   	pop    %edi
  10305f:	c3                   	ret    

00103060 <seg_init>:

void seg_init(void)
{
  103060:	57                   	push   %edi
  103061:	56                   	push   %esi
  103062:	53                   	push   %ebx
  103063:	83 ec 18             	sub    $0x18,%esp
  103066:	e8 a1 d2 ff ff       	call   10030c <__x86.get_pc_thunk.bx>
  10306b:	81 c3 95 7f 00 00    	add    $0x7f95,%ebx
    /* clear BSS */
    extern uint8_t end[], edata[];
    memzero(edata, bsp_kstack - edata);
  103071:	8d b3 00 e0 06 00    	lea    0x6e000(%ebx),%esi
  103077:	c7 c0 74 27 13 00    	mov    $0x132774,%eax
  10307d:	89 f2                	mov    %esi,%edx
  10307f:	29 c2                	sub    %eax,%edx
  103081:	52                   	push   %edx
  103082:	50                   	push   %eax
  103083:	e8 41 f8 ff ff       	call   1028c9 <memzero>
    memzero(bsp_kstack + 4096, end - bsp_kstack - 4096);
  103088:	c7 c0 20 cc df 00    	mov    $0xdfcc20,%eax
  10308e:	29 f0                	sub    %esi,%eax
  103090:	2d 00 10 00 00       	sub    $0x1000,%eax
  103095:	83 c4 08             	add    $0x8,%esp
  103098:	50                   	push   %eax
  103099:	8d b6 00 10 00 00    	lea    0x1000(%esi),%esi
  10309f:	56                   	push   %esi
  1030a0:	e8 24 f8 ff ff       	call   1028c9 <memzero>

    /* setup GDT */
    gdt_LOC[0] = SEGDESC_NULL;
  1030a5:	c7 83 00 db 02 00 00 	movl   $0x0,0x2db00(%ebx)
  1030ac:	00 00 00 
  1030af:	c7 83 04 db 02 00 00 	movl   $0x0,0x2db04(%ebx)
  1030b6:	00 00 00 
    /* 0x08: kernel code */
    gdt_LOC[CPU_GDT_KCODE >> 3] =
  1030b9:	66 c7 83 08 db 02 00 	movw   $0xffff,0x2db08(%ebx)
  1030c0:	ff ff 
  1030c2:	66 c7 83 0a db 02 00 	movw   $0x0,0x2db0a(%ebx)
  1030c9:	00 00 
  1030cb:	c6 83 0c db 02 00 00 	movb   $0x0,0x2db0c(%ebx)
  1030d2:	0f b6 83 0d db 02 00 	movzbl 0x2db0d(%ebx),%eax
  1030d9:	83 e0 f0             	and    $0xfffffff0,%eax
  1030dc:	89 c2                	mov    %eax,%edx
  1030de:	83 ca 0a             	or     $0xa,%edx
  1030e1:	88 93 0d db 02 00    	mov    %dl,0x2db0d(%ebx)
  1030e7:	83 c8 1a             	or     $0x1a,%eax
  1030ea:	88 83 0d db 02 00    	mov    %al,0x2db0d(%ebx)
  1030f0:	83 e0 9f             	and    $0xffffff9f,%eax
  1030f3:	88 83 0d db 02 00    	mov    %al,0x2db0d(%ebx)
  1030f9:	83 c8 80             	or     $0xffffff80,%eax
  1030fc:	88 83 0d db 02 00    	mov    %al,0x2db0d(%ebx)
  103102:	0f b6 83 0e db 02 00 	movzbl 0x2db0e(%ebx),%eax
  103109:	83 c8 0f             	or     $0xf,%eax
  10310c:	88 83 0e db 02 00    	mov    %al,0x2db0e(%ebx)
  103112:	89 c2                	mov    %eax,%edx
  103114:	83 e2 ef             	and    $0xffffffef,%edx
  103117:	88 93 0e db 02 00    	mov    %dl,0x2db0e(%ebx)
  10311d:	83 e0 cf             	and    $0xffffffcf,%eax
  103120:	88 83 0e db 02 00    	mov    %al,0x2db0e(%ebx)
  103126:	89 c2                	mov    %eax,%edx
  103128:	83 ca 40             	or     $0x40,%edx
  10312b:	88 93 0e db 02 00    	mov    %dl,0x2db0e(%ebx)
  103131:	83 c8 c0             	or     $0xffffffc0,%eax
  103134:	88 83 0e db 02 00    	mov    %al,0x2db0e(%ebx)
  10313a:	c6 83 0f db 02 00 00 	movb   $0x0,0x2db0f(%ebx)
        SEGDESC32(STA_X | STA_R, 0x0, 0xffffffff, 0);
    /* 0x10: kernel data */
    gdt_LOC[CPU_GDT_KDATA >> 3] = SEGDESC32(STA_W, 0x0, 0xffffffff, 0);
  103141:	66 c7 83 10 db 02 00 	movw   $0xffff,0x2db10(%ebx)
  103148:	ff ff 
  10314a:	66 c7 83 12 db 02 00 	movw   $0x0,0x2db12(%ebx)
  103151:	00 00 
  103153:	c6 83 14 db 02 00 00 	movb   $0x0,0x2db14(%ebx)
  10315a:	0f b6 83 15 db 02 00 	movzbl 0x2db15(%ebx),%eax
  103161:	83 e0 f0             	and    $0xfffffff0,%eax
  103164:	89 c2                	mov    %eax,%edx
  103166:	83 ca 02             	or     $0x2,%edx
  103169:	88 93 15 db 02 00    	mov    %dl,0x2db15(%ebx)
  10316f:	83 c8 12             	or     $0x12,%eax
  103172:	88 83 15 db 02 00    	mov    %al,0x2db15(%ebx)
  103178:	83 e0 9f             	and    $0xffffff9f,%eax
  10317b:	88 83 15 db 02 00    	mov    %al,0x2db15(%ebx)
  103181:	83 c8 80             	or     $0xffffff80,%eax
  103184:	88 83 15 db 02 00    	mov    %al,0x2db15(%ebx)
  10318a:	0f b6 83 16 db 02 00 	movzbl 0x2db16(%ebx),%eax
  103191:	83 c8 0f             	or     $0xf,%eax
  103194:	88 83 16 db 02 00    	mov    %al,0x2db16(%ebx)
  10319a:	89 c2                	mov    %eax,%edx
  10319c:	83 e2 ef             	and    $0xffffffef,%edx
  10319f:	88 93 16 db 02 00    	mov    %dl,0x2db16(%ebx)
  1031a5:	83 e0 cf             	and    $0xffffffcf,%eax
  1031a8:	88 83 16 db 02 00    	mov    %al,0x2db16(%ebx)
  1031ae:	89 c2                	mov    %eax,%edx
  1031b0:	83 ca 40             	or     $0x40,%edx
  1031b3:	88 93 16 db 02 00    	mov    %dl,0x2db16(%ebx)
  1031b9:	83 c8 c0             	or     $0xffffffc0,%eax
  1031bc:	88 83 16 db 02 00    	mov    %al,0x2db16(%ebx)
  1031c2:	c6 83 17 db 02 00 00 	movb   $0x0,0x2db17(%ebx)
    /* 0x18: user code */
    gdt_LOC[CPU_GDT_UCODE >> 3] =
  1031c9:	66 c7 83 18 db 02 00 	movw   $0xffff,0x2db18(%ebx)
  1031d0:	ff ff 
  1031d2:	66 c7 83 1a db 02 00 	movw   $0x0,0x2db1a(%ebx)
  1031d9:	00 00 
  1031db:	c6 83 1c db 02 00 00 	movb   $0x0,0x2db1c(%ebx)
  1031e2:	0f b6 83 1d db 02 00 	movzbl 0x2db1d(%ebx),%eax
  1031e9:	83 e0 f0             	and    $0xfffffff0,%eax
  1031ec:	89 c2                	mov    %eax,%edx
  1031ee:	83 ca 0a             	or     $0xa,%edx
  1031f1:	88 93 1d db 02 00    	mov    %dl,0x2db1d(%ebx)
  1031f7:	89 c2                	mov    %eax,%edx
  1031f9:	83 ca 1a             	or     $0x1a,%edx
  1031fc:	88 93 1d db 02 00    	mov    %dl,0x2db1d(%ebx)
  103202:	83 c8 7a             	or     $0x7a,%eax
  103205:	88 83 1d db 02 00    	mov    %al,0x2db1d(%ebx)
  10320b:	c6 83 1d db 02 00 fa 	movb   $0xfa,0x2db1d(%ebx)
  103212:	0f b6 83 1e db 02 00 	movzbl 0x2db1e(%ebx),%eax
  103219:	83 c8 0f             	or     $0xf,%eax
  10321c:	88 83 1e db 02 00    	mov    %al,0x2db1e(%ebx)
  103222:	89 c2                	mov    %eax,%edx
  103224:	83 e2 ef             	and    $0xffffffef,%edx
  103227:	88 93 1e db 02 00    	mov    %dl,0x2db1e(%ebx)
  10322d:	83 e0 cf             	and    $0xffffffcf,%eax
  103230:	88 83 1e db 02 00    	mov    %al,0x2db1e(%ebx)
  103236:	89 c2                	mov    %eax,%edx
  103238:	83 ca 40             	or     $0x40,%edx
  10323b:	88 93 1e db 02 00    	mov    %dl,0x2db1e(%ebx)
  103241:	83 c8 c0             	or     $0xffffffc0,%eax
  103244:	88 83 1e db 02 00    	mov    %al,0x2db1e(%ebx)
  10324a:	c6 83 1f db 02 00 00 	movb   $0x0,0x2db1f(%ebx)
        SEGDESC32(STA_X | STA_R, 0x00000000, 0xffffffff, 3);
    /* 0x20: user data */
    gdt_LOC[CPU_GDT_UDATA >> 3] =
  103251:	66 c7 83 20 db 02 00 	movw   $0xffff,0x2db20(%ebx)
  103258:	ff ff 
  10325a:	66 c7 83 22 db 02 00 	movw   $0x0,0x2db22(%ebx)
  103261:	00 00 
  103263:	c6 83 24 db 02 00 00 	movb   $0x0,0x2db24(%ebx)
  10326a:	0f b6 83 25 db 02 00 	movzbl 0x2db25(%ebx),%eax
  103271:	83 e0 f0             	and    $0xfffffff0,%eax
  103274:	89 c2                	mov    %eax,%edx
  103276:	83 ca 02             	or     $0x2,%edx
  103279:	88 93 25 db 02 00    	mov    %dl,0x2db25(%ebx)
  10327f:	89 c2                	mov    %eax,%edx
  103281:	83 ca 12             	or     $0x12,%edx
  103284:	88 93 25 db 02 00    	mov    %dl,0x2db25(%ebx)
  10328a:	83 c8 72             	or     $0x72,%eax
  10328d:	88 83 25 db 02 00    	mov    %al,0x2db25(%ebx)
  103293:	c6 83 25 db 02 00 f2 	movb   $0xf2,0x2db25(%ebx)
  10329a:	0f b6 83 26 db 02 00 	movzbl 0x2db26(%ebx),%eax
  1032a1:	83 c8 0f             	or     $0xf,%eax
  1032a4:	88 83 26 db 02 00    	mov    %al,0x2db26(%ebx)
  1032aa:	89 c2                	mov    %eax,%edx
  1032ac:	83 e2 ef             	and    $0xffffffef,%edx
  1032af:	88 93 26 db 02 00    	mov    %dl,0x2db26(%ebx)
  1032b5:	83 e0 cf             	and    $0xffffffcf,%eax
  1032b8:	88 83 26 db 02 00    	mov    %al,0x2db26(%ebx)
  1032be:	89 c2                	mov    %eax,%edx
  1032c0:	83 ca 40             	or     $0x40,%edx
  1032c3:	88 93 26 db 02 00    	mov    %dl,0x2db26(%ebx)
  1032c9:	83 c8 c0             	or     $0xffffffc0,%eax
  1032cc:	88 83 26 db 02 00    	mov    %al,0x2db26(%ebx)
  1032d2:	c6 83 27 db 02 00 00 	movb   $0x0,0x2db27(%ebx)
        SEGDESC32(STA_W, 0x00000000, 0xffffffff, 3);

    /* setup TSS */
    tss0.ts_esp0 = (uint32_t) bsp_kstack + 4096;
  1032d9:	89 b3 04 f0 06 00    	mov    %esi,0x6f004(%ebx)
    tss0.ts_ss0 = CPU_GDT_KDATA;
  1032df:	66 c7 83 08 f0 06 00 	movw   $0x10,0x6f008(%ebx)
  1032e6:	10 00 
    gdt_LOC[CPU_GDT_TSS >> 3] =
  1032e8:	66 c7 83 28 db 02 00 	movw   $0xeb,0x2db28(%ebx)
  1032ef:	eb 00 
  1032f1:	8d 8b 00 f0 06 00    	lea    0x6f000(%ebx),%ecx
  1032f7:	66 89 8b 2a db 02 00 	mov    %cx,0x2db2a(%ebx)
        SEGDESC16(STS_T32A, (uint32_t) (&tss0), sizeof(tss_t) - 1, 0);
  1032fe:	89 c8                	mov    %ecx,%eax
  103300:	c1 e8 10             	shr    $0x10,%eax
    gdt_LOC[CPU_GDT_TSS >> 3] =
  103303:	88 83 2c db 02 00    	mov    %al,0x2db2c(%ebx)
  103309:	0f b6 83 2d db 02 00 	movzbl 0x2db2d(%ebx),%eax
  103310:	83 e0 f0             	and    $0xfffffff0,%eax
  103313:	89 c2                	mov    %eax,%edx
  103315:	83 ca 09             	or     $0x9,%edx
  103318:	88 93 2d db 02 00    	mov    %dl,0x2db2d(%ebx)
  10331e:	83 c8 19             	or     $0x19,%eax
  103321:	88 83 2d db 02 00    	mov    %al,0x2db2d(%ebx)
  103327:	83 e0 9f             	and    $0xffffff9f,%eax
  10332a:	88 83 2d db 02 00    	mov    %al,0x2db2d(%ebx)
  103330:	83 c8 80             	or     $0xffffff80,%eax
  103333:	89 c7                	mov    %eax,%edi
  103335:	88 83 2d db 02 00    	mov    %al,0x2db2d(%ebx)
  10333b:	0f b6 93 2e db 02 00 	movzbl 0x2db2e(%ebx),%edx
  103342:	89 d6                	mov    %edx,%esi
  103344:	83 e6 f0             	and    $0xfffffff0,%esi
  103347:	89 f0                	mov    %esi,%eax
  103349:	88 83 2e db 02 00    	mov    %al,0x2db2e(%ebx)
  10334f:	89 d6                	mov    %edx,%esi
  103351:	83 e6 e0             	and    $0xffffffe0,%esi
  103354:	89 f0                	mov    %esi,%eax
  103356:	88 83 2e db 02 00    	mov    %al,0x2db2e(%ebx)
  10335c:	83 e2 c0             	and    $0xffffffc0,%edx
  10335f:	88 93 2e db 02 00    	mov    %dl,0x2db2e(%ebx)
  103365:	83 ca 40             	or     $0x40,%edx
  103368:	88 93 2e db 02 00    	mov    %dl,0x2db2e(%ebx)
  10336e:	83 e2 7f             	and    $0x7f,%edx
  103371:	88 93 2e db 02 00    	mov    %dl,0x2db2e(%ebx)
        SEGDESC16(STS_T32A, (uint32_t) (&tss0), sizeof(tss_t) - 1, 0);
  103377:	c1 e9 18             	shr    $0x18,%ecx
    gdt_LOC[CPU_GDT_TSS >> 3] =
  10337a:	88 8b 2f db 02 00    	mov    %cl,0x2db2f(%ebx)
    gdt_LOC[CPU_GDT_TSS >> 3].sd_s = 0;
  103380:	89 f8                	mov    %edi,%eax
  103382:	83 e0 ef             	and    $0xffffffef,%eax
  103385:	88 83 2d db 02 00    	mov    %al,0x2db2d(%ebx)

    pseudodesc_t gdt_desc = {
  10338b:	66 c7 44 24 1a 2f 00 	movw   $0x2f,0x1a(%esp)
        .pd_lim = sizeof(gdt_LOC) - 1,
        .pd_base = (uint32_t) gdt_LOC
  103392:	8d 83 00 db 02 00    	lea    0x2db00(%ebx),%eax
    pseudodesc_t gdt_desc = {
  103398:	89 44 24 1c          	mov    %eax,0x1c(%esp)
    };
    asm volatile ("lgdt %0" :: "m" (gdt_desc));
  10339c:	0f 01 54 24 1a       	lgdtl  0x1a(%esp)
    asm volatile ("movw %%ax,%%gs" :: "a" (CPU_GDT_KDATA));
  1033a1:	b8 10 00 00 00       	mov    $0x10,%eax
  1033a6:	8e e8                	mov    %eax,%gs
    asm volatile ("movw %%ax,%%fs" :: "a" (CPU_GDT_KDATA));
  1033a8:	8e e0                	mov    %eax,%fs
    asm volatile ("movw %%ax,%%es" :: "a" (CPU_GDT_KDATA));
  1033aa:	8e c0                	mov    %eax,%es
    asm volatile ("movw %%ax,%%ds" :: "a" (CPU_GDT_KDATA));
  1033ac:	8e d8                	mov    %eax,%ds
    asm volatile ("movw %%ax,%%ss" :: "a" (CPU_GDT_KDATA));
  1033ae:	8e d0                	mov    %eax,%ss
    /* reload %cs */
    asm volatile ("ljmp %0,$1f\n 1:\n" :: "i" (CPU_GDT_KCODE));
  1033b0:	ea b7 33 10 00 08 00 	ljmp   $0x8,$0x1033b7

    /*
     * Load a null LDT.
     */
    lldt(0);
  1033b7:	c7 04 24 00 00 00 00 	movl   $0x0,(%esp)
  1033be:	e8 dc 00 00 00       	call   10349f <lldt>

    /*
     * Load the bootstrap TSS.
     */
    ltr(CPU_GDT_TSS);
  1033c3:	c7 04 24 28 00 00 00 	movl   $0x28,(%esp)
  1033ca:	e8 5c 01 00 00       	call   10352b <ltr>

    /*
     * Initialize all TSS structures for processes.
     */
    unsigned int pid;
    memzero(tss_LOC, sizeof(tss_t) * 64);
  1033cf:	83 c4 08             	add    $0x8,%esp
  1033d2:	68 00 3b 00 00       	push   $0x3b00
  1033d7:	8d 83 00 a0 02 00    	lea    0x2a000(%ebx),%eax
  1033dd:	50                   	push   %eax
  1033de:	e8 e6 f4 ff ff       	call   1028c9 <memzero>
    memzero(STACK_LOC, sizeof(char) * 64 * 4096);
  1033e3:	83 c4 08             	add    $0x8,%esp
  1033e6:	68 00 00 04 00       	push   $0x40000
  1033eb:	8d 83 00 e0 02 00    	lea    0x2e000(%ebx),%eax
  1033f1:	50                   	push   %eax
  1033f2:	e8 d2 f4 ff ff       	call   1028c9 <memzero>
    for (pid = 0; pid < 64; pid++) {
  1033f7:	83 c4 10             	add    $0x10,%esp
  1033fa:	be 00 00 00 00       	mov    $0x0,%esi
  1033ff:	eb 4a                	jmp    10344b <seg_init+0x3eb>
        tss_LOC[pid].ts_esp0 = (uint32_t) STACK_LOC[pid] + 4096;
  103401:	89 f0                	mov    %esi,%eax
  103403:	c1 e0 0c             	shl    $0xc,%eax
  103406:	8d 94 03 00 f0 02 00 	lea    0x2f000(%ebx,%eax,1),%edx
  10340d:	69 c6 ec 00 00 00    	imul   $0xec,%esi,%eax
  103413:	8d bc 03 00 a0 02 00 	lea    0x2a000(%ebx,%eax,1),%edi
  10341a:	89 57 04             	mov    %edx,0x4(%edi)
        tss_LOC[pid].ts_ss0 = CPU_GDT_KDATA;
  10341d:	66 c7 47 08 10 00    	movw   $0x10,0x8(%edi)
        tss_LOC[pid].ts_iomb = offsetof(tss_t, ts_iopm);
  103423:	66 c7 47 66 68 00    	movw   $0x68,0x66(%edi)
        memzero(tss_LOC[pid].ts_iopm, sizeof(uint8_t) * 128);
  103429:	8d 84 03 68 a0 02 00 	lea    0x2a068(%ebx,%eax,1),%eax
  103430:	83 ec 08             	sub    $0x8,%esp
  103433:	68 80 00 00 00       	push   $0x80
  103438:	50                   	push   %eax
  103439:	e8 8b f4 ff ff       	call   1028c9 <memzero>
        tss_LOC[pid].ts_iopm[128] = 0xff;
  10343e:	c6 87 e8 00 00 00 ff 	movb   $0xff,0xe8(%edi)
    for (pid = 0; pid < 64; pid++) {
  103445:	83 c6 01             	add    $0x1,%esi
  103448:	83 c4 10             	add    $0x10,%esp
  10344b:	83 fe 3f             	cmp    $0x3f,%esi
  10344e:	76 b1                	jbe    103401 <seg_init+0x3a1>
    }
}
  103450:	83 c4 10             	add    $0x10,%esp
  103453:	5b                   	pop    %ebx
  103454:	5e                   	pop    %esi
  103455:	5f                   	pop    %edi
  103456:	c3                   	ret    

00103457 <max>:
#include "types.h"

uint32_t max(uint32_t a, uint32_t b)
{
  103457:	8b 44 24 08          	mov    0x8(%esp),%eax
    return (a > b) ? a : b;
  10345b:	8b 54 24 04          	mov    0x4(%esp),%edx
  10345f:	39 d0                	cmp    %edx,%eax
  103461:	0f 42 c2             	cmovb  %edx,%eax
}
  103464:	c3                   	ret    

00103465 <min>:

uint32_t min(uint32_t a, uint32_t b)
{
  103465:	8b 44 24 08          	mov    0x8(%esp),%eax
    return (a < b) ? a : b;
  103469:	8b 54 24 04          	mov    0x4(%esp),%edx
  10346d:	39 d0                	cmp    %edx,%eax
  10346f:	0f 47 c2             	cmova  %edx,%eax
}
  103472:	c3                   	ret    

00103473 <rounddown>:

uint32_t rounddown(uint32_t a, uint32_t n)
{
  103473:	8b 4c 24 04          	mov    0x4(%esp),%ecx
    return a - a % n;
  103477:	89 c8                	mov    %ecx,%eax
  103479:	ba 00 00 00 00       	mov    $0x0,%edx
  10347e:	f7 74 24 08          	divl   0x8(%esp)
  103482:	89 c8                	mov    %ecx,%eax
  103484:	29 d0                	sub    %edx,%eax
}
  103486:	c3                   	ret    

00103487 <roundup>:

uint32_t roundup(uint32_t a, uint32_t n)
{
  103487:	8b 54 24 08          	mov    0x8(%esp),%edx
    return rounddown(a + n - 1, n);
  10348b:	89 d0                	mov    %edx,%eax
  10348d:	03 44 24 04          	add    0x4(%esp),%eax
  103491:	52                   	push   %edx
  103492:	83 e8 01             	sub    $0x1,%eax
  103495:	50                   	push   %eax
  103496:	e8 d8 ff ff ff       	call   103473 <rounddown>
  10349b:	83 c4 08             	add    $0x8,%esp
}
  10349e:	c3                   	ret    

0010349f <lldt>:
#include <lib/string.h>
#include "x86.h"

gcc_inline void lldt(uint16_t sel)
{
    __asm __volatile ("lldt %0" :: "r" (sel));
  10349f:	0f b7 44 24 04       	movzwl 0x4(%esp),%eax
  1034a4:	0f 00 d0             	lldt   %ax
}
  1034a7:	c3                   	ret    

001034a8 <cli>:

gcc_inline void cli(void)
{
    __asm __volatile ("cli" ::: "memory");
  1034a8:	fa                   	cli    
}
  1034a9:	c3                   	ret    

001034aa <sti>:

gcc_inline void sti(void)
{
    __asm __volatile ("sti; nop");
  1034aa:	fb                   	sti    
  1034ab:	90                   	nop
}
  1034ac:	c3                   	ret    

001034ad <rdmsr>:

gcc_inline uint64_t rdmsr(uint32_t msr)
{
    uint64_t rv;
    __asm __volatile ("rdmsr"
  1034ad:	8b 4c 24 04          	mov    0x4(%esp),%ecx
  1034b1:	0f 32                	rdmsr  
                      : "=A" (rv)
                      : "c" (msr));
    return rv;
}
  1034b3:	c3                   	ret    

001034b4 <wrmsr>:

gcc_inline void wrmsr(uint32_t msr, uint64_t newval)
{
    __asm __volatile ("wrmsr" :: "A" (newval), "c" (msr));
  1034b4:	8b 4c 24 04          	mov    0x4(%esp),%ecx
  1034b8:	8b 44 24 08          	mov    0x8(%esp),%eax
  1034bc:	8b 54 24 0c          	mov    0xc(%esp),%edx
  1034c0:	0f 30                	wrmsr  
}
  1034c2:	c3                   	ret    

001034c3 <halt>:

gcc_inline void halt(void)
{
    __asm __volatile ("hlt");
  1034c3:	f4                   	hlt    
}
  1034c4:	c3                   	ret    

001034c5 <rdtsc>:

gcc_inline uint64_t rdtsc(void)
{
    uint64_t rv;

    __asm __volatile ("rdtsc" : "=A" (rv));
  1034c5:	0f 31                	rdtsc  
    return (rv);
}
  1034c7:	c3                   	ret    

001034c8 <enable_sse>:
}

gcc_inline uint32_t rcr4(void)
{
    uint32_t cr4;
    __asm __volatile ("movl %%cr4,%0" : "=r" (cr4));
  1034c8:	0f 20 e0             	mov    %cr4,%eax
    cr4 = rcr4() | CR4_OSFXSR | CR4_OSXMMEXCPT;
  1034cb:	80 cc 06             	or     $0x6,%ah
    FENCE();
  1034ce:	0f ae f0             	mfence 
    __asm __volatile ("movl %0,%%cr4" :: "r" (val));
  1034d1:	0f 22 e0             	mov    %eax,%cr4
    __asm __volatile ("movl %%cr0,%0" : "=r" (val));
  1034d4:	0f 20 c0             	mov    %cr0,%eax
    FENCE();
  1034d7:	0f ae f0             	mfence 
}
  1034da:	c3                   	ret    

001034db <cpuid>:
{
  1034db:	55                   	push   %ebp
  1034dc:	57                   	push   %edi
  1034dd:	56                   	push   %esi
  1034de:	53                   	push   %ebx
  1034df:	8b 44 24 14          	mov    0x14(%esp),%eax
  1034e3:	8b 74 24 18          	mov    0x18(%esp),%esi
  1034e7:	8b 7c 24 1c          	mov    0x1c(%esp),%edi
  1034eb:	8b 6c 24 20          	mov    0x20(%esp),%ebp
    __asm __volatile ("cpuid"
  1034ef:	0f a2                	cpuid  
    if (eaxp)
  1034f1:	85 f6                	test   %esi,%esi
  1034f3:	74 02                	je     1034f7 <cpuid+0x1c>
        *eaxp = eax;
  1034f5:	89 06                	mov    %eax,(%esi)
    if (ebxp)
  1034f7:	85 ff                	test   %edi,%edi
  1034f9:	74 02                	je     1034fd <cpuid+0x22>
        *ebxp = ebx;
  1034fb:	89 1f                	mov    %ebx,(%edi)
    if (ecxp)
  1034fd:	85 ed                	test   %ebp,%ebp
  1034ff:	74 03                	je     103504 <cpuid+0x29>
        *ecxp = ecx;
  103501:	89 4d 00             	mov    %ecx,0x0(%ebp)
    if (edxp)
  103504:	83 7c 24 24 00       	cmpl   $0x0,0x24(%esp)
  103509:	74 06                	je     103511 <cpuid+0x36>
        *edxp = edx;
  10350b:	8b 44 24 24          	mov    0x24(%esp),%eax
  10350f:	89 10                	mov    %edx,(%eax)
}
  103511:	5b                   	pop    %ebx
  103512:	5e                   	pop    %esi
  103513:	5f                   	pop    %edi
  103514:	5d                   	pop    %ebp
  103515:	c3                   	ret    

00103516 <rcr3>:
    __asm __volatile ("movl %%cr3,%0" : "=r" (val));
  103516:	0f 20 d8             	mov    %cr3,%eax
}
  103519:	c3                   	ret    

0010351a <outl>:
    __asm __volatile ("outl %0,%w1" :: "a" (data), "d" (port));
  10351a:	8b 54 24 04          	mov    0x4(%esp),%edx
  10351e:	8b 44 24 08          	mov    0x8(%esp),%eax
  103522:	ef                   	out    %eax,(%dx)
}
  103523:	c3                   	ret    

00103524 <inl>:
    __asm __volatile ("inl %w1,%0" : "=a" (data) : "d" (port));
  103524:	8b 54 24 04          	mov    0x4(%esp),%edx
  103528:	ed                   	in     (%dx),%eax
}
  103529:	c3                   	ret    

0010352a <smp_wmb>:
}
  10352a:	c3                   	ret    

0010352b <ltr>:
    __asm __volatile ("ltr %0" :: "r" (sel));
  10352b:	0f b7 44 24 04       	movzwl 0x4(%esp),%eax
  103530:	0f 00 d8             	ltr    %ax
}
  103533:	c3                   	ret    

00103534 <lcr0>:
    __asm __volatile ("movl %0,%%cr0" :: "r" (val));
  103534:	8b 44 24 04          	mov    0x4(%esp),%eax
  103538:	0f 22 c0             	mov    %eax,%cr0
}
  10353b:	c3                   	ret    

0010353c <rcr0>:
    __asm __volatile ("movl %%cr0,%0" : "=r" (val));
  10353c:	0f 20 c0             	mov    %cr0,%eax
}
  10353f:	c3                   	ret    

00103540 <rcr2>:
    __asm __volatile ("movl %%cr2,%0" : "=r" (val));
  103540:	0f 20 d0             	mov    %cr2,%eax
}
  103543:	c3                   	ret    

00103544 <lcr3>:
    __asm __volatile ("movl %0,%%cr3" :: "r" (val));
  103544:	8b 44 24 04          	mov    0x4(%esp),%eax
  103548:	0f 22 d8             	mov    %eax,%cr3
}
  10354b:	c3                   	ret    

0010354c <lcr4>:
    __asm __volatile ("movl %0,%%cr4" :: "r" (val));
  10354c:	8b 44 24 04          	mov    0x4(%esp),%eax
  103550:	0f 22 e0             	mov    %eax,%cr4
}
  103553:	c3                   	ret    

00103554 <rcr4>:
    __asm __volatile ("movl %%cr4,%0" : "=r" (cr4));
  103554:	0f 20 e0             	mov    %cr4,%eax
    return cr4;
}
  103557:	c3                   	ret    

00103558 <inb>:

gcc_inline uint8_t inb(int port)
{
    uint8_t data;
    __asm __volatile ("inb %w1,%0"
  103558:	8b 54 24 04          	mov    0x4(%esp),%edx
  10355c:	ec                   	in     (%dx),%al
                      : "=a" (data)
                      : "d" (port));
    return data;
}
  10355d:	c3                   	ret    

0010355e <insl>:

gcc_inline void insl(int port, void *addr, int cnt)
{
  10355e:	57                   	push   %edi
    __asm __volatile ("cld\n\trepne\n\tinsl"
  10355f:	8b 7c 24 0c          	mov    0xc(%esp),%edi
  103563:	8b 4c 24 10          	mov    0x10(%esp),%ecx
  103567:	8b 54 24 08          	mov    0x8(%esp),%edx
  10356b:	fc                   	cld    
  10356c:	f2 6d                	repnz insl (%dx),%es:(%edi)
                      : "=D" (addr), "=c" (cnt)
                      : "d" (port), "0" (addr), "1" (cnt)
                      : "memory", "cc");
}
  10356e:	5f                   	pop    %edi
  10356f:	c3                   	ret    

00103570 <outb>:

gcc_inline void outb(int port, uint8_t data)
{
    __asm __volatile ("outb %0,%w1" :: "a" (data), "d" (port));
  103570:	8b 54 24 04          	mov    0x4(%esp),%edx
  103574:	0f b6 44 24 08       	movzbl 0x8(%esp),%eax
  103579:	ee                   	out    %al,(%dx)
}
  10357a:	c3                   	ret    

0010357b <outsw>:

gcc_inline void outsw(int port, const void *addr, int cnt)
{
  10357b:	56                   	push   %esi
    __asm __volatile ("cld\n\trepne\n\toutsw"
  10357c:	8b 74 24 0c          	mov    0xc(%esp),%esi
  103580:	8b 4c 24 10          	mov    0x10(%esp),%ecx
  103584:	8b 54 24 08          	mov    0x8(%esp),%edx
  103588:	fc                   	cld    
  103589:	f2 66 6f             	repnz outsw %ds:(%esi),(%dx)
                      : "=S" (addr), "=c" (cnt)
                      : "d" (port), "0" (addr), "1" (cnt)
                      : "cc");
}
  10358c:	5e                   	pop    %esi
  10358d:	c3                   	ret    

0010358e <mon_help>:
extern void set_curid(unsigned int curid);
extern void kctx_switch(unsigned int from_pid, unsigned int to_pid);

/***** Implementations of basic kernel monitor commands *****/
int mon_help(int argc, char **argv, struct Trapframe *tf)
{
  10358e:	56                   	push   %esi
  10358f:	53                   	push   %ebx
  103590:	83 ec 04             	sub    $0x4,%esp
  103593:	e8 74 cd ff ff       	call   10030c <__x86.get_pc_thunk.bx>
  103598:	81 c3 68 7a 00 00    	add    $0x7a68,%ebx
    int i;

    for (i = 0; i < NCOMMANDS; i++)
  10359e:	be 00 00 00 00       	mov    $0x0,%esi
  1035a3:	eb 30                	jmp    1035d5 <mon_help+0x47>
        dprintf("%s - %s\n", commands[i].name, commands[i].desc);
  1035a5:	83 ec 04             	sub    $0x4,%esp
  1035a8:	8d 04 36             	lea    (%esi,%esi,1),%eax
  1035ab:	8d 0c 30             	lea    (%eax,%esi,1),%ecx
  1035ae:	8d 14 8d 00 00 00 00 	lea    0x0(,%ecx,4),%edx
  1035b5:	ff b4 13 c4 ff ff ff 	push   -0x3c(%ebx,%edx,1)
  1035bc:	ff b4 13 c0 ff ff ff 	push   -0x40(%ebx,%edx,1)
  1035c3:	8d 83 a8 b5 ff ff    	lea    -0x4a58(%ebx),%eax
  1035c9:	50                   	push   %eax
  1035ca:	e8 32 f5 ff ff       	call   102b01 <dprintf>
    for (i = 0; i < NCOMMANDS; i++)
  1035cf:	83 c6 01             	add    $0x1,%esi
  1035d2:	83 c4 10             	add    $0x10,%esp
  1035d5:	83 fe 02             	cmp    $0x2,%esi
  1035d8:	76 cb                	jbe    1035a5 <mon_help+0x17>
    return 0;
}
  1035da:	b8 00 00 00 00       	mov    $0x0,%eax
  1035df:	83 c4 04             	add    $0x4,%esp
  1035e2:	5b                   	pop    %ebx
  1035e3:	5e                   	pop    %esi
  1035e4:	c3                   	ret    

001035e5 <mon_kerninfo>:

int mon_kerninfo(int argc, char **argv, struct Trapframe *tf)
{
  1035e5:	57                   	push   %edi
  1035e6:	56                   	push   %esi
  1035e7:	53                   	push   %ebx
  1035e8:	e8 1f cd ff ff       	call   10030c <__x86.get_pc_thunk.bx>
  1035ed:	81 c3 13 7a 00 00    	add    $0x7a13,%ebx
    extern uint8_t start[], etext[], edata[], end[];

    dprintf("Special kernel symbols:\n");
  1035f3:	83 ec 0c             	sub    $0xc,%esp
